ARM GAS  C:\Users\z004c8dn\AppData\Local\Temp\cc4BsRZQ.s 			page 1


   1              		.syntax unified
   2              		.cpu cortex-m3
   3              		.fpu softvfp
   4              		.eabi_attribute 20, 1
   5              		.eabi_attribute 21, 1
   6              		.eabi_attribute 23, 3
   7              		.eabi_attribute 24, 1
   8              		.eabi_attribute 25, 1
   9              		.eabi_attribute 26, 1
  10              		.eabi_attribute 30, 1
  11              		.eabi_attribute 34, 1
  12              		.eabi_attribute 18, 4
  13              		.thumb
  14              		.syntax unified
  15              		.file	"isr_rx.c"
  16              		.text
  17              	.Ltext0:
  18              		.cfi_sections	.debug_frame
  19              		.section	.text.isr_rx_Interrupt,"ax",%progbits
  20              		.align	2
  21              		.global	isr_rx_Interrupt
  22              		.thumb
  23              		.thumb_func
  24              		.type	isr_rx_Interrupt, %function
  25              	isr_rx_Interrupt:
  26              	.LFB66:
  27              		.file 1 "Generated_Source\\PSoC5\\isr_rx.c"
   1:Generated_Source\PSoC5/isr_rx.c **** /*******************************************************************************
   2:Generated_Source\PSoC5/isr_rx.c **** * File Name: isr_rx.c  
   3:Generated_Source\PSoC5/isr_rx.c **** * Version 1.70
   4:Generated_Source\PSoC5/isr_rx.c **** *
   5:Generated_Source\PSoC5/isr_rx.c **** *  Description:
   6:Generated_Source\PSoC5/isr_rx.c **** *   API for controlling the state of an interrupt.
   7:Generated_Source\PSoC5/isr_rx.c **** *   EDITED BY:   Andreas BOTH
   8:Generated_Source\PSoC5/isr_rx.c **** *   DATE:        2024-04-14
   9:Generated_Source\PSoC5/isr_rx.c **** *   COURSE ID:   tx00db04
  10:Generated_Source\PSoC5/isr_rx.c **** *   Description: PSoC course excercise 2, 
  11:Generated_Source\PSoC5/isr_rx.c **** *                Position control of a servo motor using PWM and interrupts
  12:Generated_Source\PSoC5/isr_rx.c **** *
  13:Generated_Source\PSoC5/isr_rx.c **** *  Note:
  14:Generated_Source\PSoC5/isr_rx.c **** *
  15:Generated_Source\PSoC5/isr_rx.c **** ********************************************************************************
  16:Generated_Source\PSoC5/isr_rx.c **** * Copyright 2008-2015, Cypress Semiconductor Corporation.  All rights reserved.
  17:Generated_Source\PSoC5/isr_rx.c **** * You may use this file only in accordance with the license, terms, conditions, 
  18:Generated_Source\PSoC5/isr_rx.c **** * disclaimers, and limitations in the end user license agreement accompanying 
  19:Generated_Source\PSoC5/isr_rx.c **** * the software package with which this file was provided.
  20:Generated_Source\PSoC5/isr_rx.c **** *******************************************************************************/
  21:Generated_Source\PSoC5/isr_rx.c **** 
  22:Generated_Source\PSoC5/isr_rx.c **** 
  23:Generated_Source\PSoC5/isr_rx.c **** #include <cydevice_trm.h>
  24:Generated_Source\PSoC5/isr_rx.c **** #include <CyLib.h>
  25:Generated_Source\PSoC5/isr_rx.c **** #include <isr_rx.h>
  26:Generated_Source\PSoC5/isr_rx.c **** #include "cyapicallbacks.h"
  27:Generated_Source\PSoC5/isr_rx.c **** 
  28:Generated_Source\PSoC5/isr_rx.c **** #if !defined(isr_rx__REMOVED) /* Check for removal by optimization */
  29:Generated_Source\PSoC5/isr_rx.c **** 
  30:Generated_Source\PSoC5/isr_rx.c **** /*******************************************************************************
ARM GAS  C:\Users\z004c8dn\AppData\Local\Temp\cc4BsRZQ.s 			page 2


  31:Generated_Source\PSoC5/isr_rx.c **** *  Place your includes, defines and code here 
  32:Generated_Source\PSoC5/isr_rx.c **** ********************************************************************************/
  33:Generated_Source\PSoC5/isr_rx.c **** /* `#START isr_rx_intc` */
  34:Generated_Source\PSoC5/isr_rx.c ****     
  35:Generated_Source\PSoC5/isr_rx.c ****     #include "project.h"
  36:Generated_Source\PSoC5/isr_rx.c ****     enum servoPositions {position1,position2,position3,position4,position5};
  37:Generated_Source\PSoC5/isr_rx.c ****     extern volatile enum servoPositions gPositionCounter;
  38:Generated_Source\PSoC5/isr_rx.c **** /* `#END` */
  39:Generated_Source\PSoC5/isr_rx.c **** 
  40:Generated_Source\PSoC5/isr_rx.c **** #ifndef CYINT_IRQ_BASE
  41:Generated_Source\PSoC5/isr_rx.c **** #define CYINT_IRQ_BASE      16
  42:Generated_Source\PSoC5/isr_rx.c **** #endif /* CYINT_IRQ_BASE */
  43:Generated_Source\PSoC5/isr_rx.c **** #ifndef CYINT_VECT_TABLE
  44:Generated_Source\PSoC5/isr_rx.c **** #define CYINT_VECT_TABLE    ((cyisraddress **) CYREG_NVIC_VECT_OFFSET)
  45:Generated_Source\PSoC5/isr_rx.c **** #endif /* CYINT_VECT_TABLE */
  46:Generated_Source\PSoC5/isr_rx.c **** 
  47:Generated_Source\PSoC5/isr_rx.c **** /* Declared in startup, used to set unused interrupts to. */
  48:Generated_Source\PSoC5/isr_rx.c **** CY_ISR_PROTO(IntDefaultHandler);
  49:Generated_Source\PSoC5/isr_rx.c **** 
  50:Generated_Source\PSoC5/isr_rx.c **** 
  51:Generated_Source\PSoC5/isr_rx.c **** /*******************************************************************************
  52:Generated_Source\PSoC5/isr_rx.c **** * Function Name: isr_rx_Start
  53:Generated_Source\PSoC5/isr_rx.c **** ********************************************************************************
  54:Generated_Source\PSoC5/isr_rx.c **** *
  55:Generated_Source\PSoC5/isr_rx.c **** * Summary:
  56:Generated_Source\PSoC5/isr_rx.c **** *  Set up the interrupt and enable it. This function disables the interrupt, 
  57:Generated_Source\PSoC5/isr_rx.c **** *  sets the default interrupt vector, sets the priority from the value in the
  58:Generated_Source\PSoC5/isr_rx.c **** *  Design Wide Resources Interrupt Editor, then enables the interrupt to the 
  59:Generated_Source\PSoC5/isr_rx.c **** *  interrupt controller.
  60:Generated_Source\PSoC5/isr_rx.c **** *
  61:Generated_Source\PSoC5/isr_rx.c **** * Parameters:  
  62:Generated_Source\PSoC5/isr_rx.c **** *   None
  63:Generated_Source\PSoC5/isr_rx.c **** *
  64:Generated_Source\PSoC5/isr_rx.c **** * Return:
  65:Generated_Source\PSoC5/isr_rx.c **** *   None
  66:Generated_Source\PSoC5/isr_rx.c **** *
  67:Generated_Source\PSoC5/isr_rx.c **** *******************************************************************************/
  68:Generated_Source\PSoC5/isr_rx.c **** void isr_rx_Start(void)
  69:Generated_Source\PSoC5/isr_rx.c **** {
  70:Generated_Source\PSoC5/isr_rx.c ****     /* For all we know the interrupt is active. */
  71:Generated_Source\PSoC5/isr_rx.c ****     isr_rx_Disable();
  72:Generated_Source\PSoC5/isr_rx.c **** 
  73:Generated_Source\PSoC5/isr_rx.c ****     /* Set the ISR to point to the isr_rx Interrupt. */
  74:Generated_Source\PSoC5/isr_rx.c ****     isr_rx_SetVector(&isr_rx_Interrupt);
  75:Generated_Source\PSoC5/isr_rx.c **** 
  76:Generated_Source\PSoC5/isr_rx.c ****     /* Set the priority. */
  77:Generated_Source\PSoC5/isr_rx.c ****     isr_rx_SetPriority((uint8)isr_rx_INTC_PRIOR_NUMBER);
  78:Generated_Source\PSoC5/isr_rx.c **** 
  79:Generated_Source\PSoC5/isr_rx.c ****     /* Enable it. */
  80:Generated_Source\PSoC5/isr_rx.c ****     isr_rx_Enable();
  81:Generated_Source\PSoC5/isr_rx.c **** }
  82:Generated_Source\PSoC5/isr_rx.c **** 
  83:Generated_Source\PSoC5/isr_rx.c **** 
  84:Generated_Source\PSoC5/isr_rx.c **** /*******************************************************************************
  85:Generated_Source\PSoC5/isr_rx.c **** * Function Name: isr_rx_StartEx
  86:Generated_Source\PSoC5/isr_rx.c **** ********************************************************************************
  87:Generated_Source\PSoC5/isr_rx.c **** *
ARM GAS  C:\Users\z004c8dn\AppData\Local\Temp\cc4BsRZQ.s 			page 3


  88:Generated_Source\PSoC5/isr_rx.c **** * Summary:
  89:Generated_Source\PSoC5/isr_rx.c **** *  Sets up the interrupt and enables it. This function disables the interrupt,
  90:Generated_Source\PSoC5/isr_rx.c **** *  sets the interrupt vector based on the address passed in, sets the priority 
  91:Generated_Source\PSoC5/isr_rx.c **** *  from the value in the Design Wide Resources Interrupt Editor, then enables 
  92:Generated_Source\PSoC5/isr_rx.c **** *  the interrupt to the interrupt controller.
  93:Generated_Source\PSoC5/isr_rx.c **** *  
  94:Generated_Source\PSoC5/isr_rx.c **** *  When defining ISR functions, the CY_ISR and CY_ISR_PROTO macros should be 
  95:Generated_Source\PSoC5/isr_rx.c **** *  used to provide consistent definition across compilers:
  96:Generated_Source\PSoC5/isr_rx.c **** *  
  97:Generated_Source\PSoC5/isr_rx.c **** *  Function definition example:
  98:Generated_Source\PSoC5/isr_rx.c **** *   CY_ISR(MyISR)
  99:Generated_Source\PSoC5/isr_rx.c **** *   {
 100:Generated_Source\PSoC5/isr_rx.c **** *   }
 101:Generated_Source\PSoC5/isr_rx.c **** *   Function prototype example:
 102:Generated_Source\PSoC5/isr_rx.c **** *   CY_ISR_PROTO(MyISR);
 103:Generated_Source\PSoC5/isr_rx.c **** *
 104:Generated_Source\PSoC5/isr_rx.c **** * Parameters:  
 105:Generated_Source\PSoC5/isr_rx.c **** *   address: Address of the ISR to set in the interrupt vector table.
 106:Generated_Source\PSoC5/isr_rx.c **** *
 107:Generated_Source\PSoC5/isr_rx.c **** * Return:
 108:Generated_Source\PSoC5/isr_rx.c **** *   None
 109:Generated_Source\PSoC5/isr_rx.c **** *
 110:Generated_Source\PSoC5/isr_rx.c **** *******************************************************************************/
 111:Generated_Source\PSoC5/isr_rx.c **** void isr_rx_StartEx(cyisraddress address)
 112:Generated_Source\PSoC5/isr_rx.c **** {
 113:Generated_Source\PSoC5/isr_rx.c ****     /* For all we know the interrupt is active. */
 114:Generated_Source\PSoC5/isr_rx.c ****     isr_rx_Disable();
 115:Generated_Source\PSoC5/isr_rx.c **** 
 116:Generated_Source\PSoC5/isr_rx.c ****     /* Set the ISR to point to the isr_rx Interrupt. */
 117:Generated_Source\PSoC5/isr_rx.c ****     isr_rx_SetVector(address);
 118:Generated_Source\PSoC5/isr_rx.c **** 
 119:Generated_Source\PSoC5/isr_rx.c ****     /* Set the priority. */
 120:Generated_Source\PSoC5/isr_rx.c ****     isr_rx_SetPriority((uint8)isr_rx_INTC_PRIOR_NUMBER);
 121:Generated_Source\PSoC5/isr_rx.c **** 
 122:Generated_Source\PSoC5/isr_rx.c ****     /* Enable it. */
 123:Generated_Source\PSoC5/isr_rx.c ****     isr_rx_Enable();
 124:Generated_Source\PSoC5/isr_rx.c **** }
 125:Generated_Source\PSoC5/isr_rx.c **** 
 126:Generated_Source\PSoC5/isr_rx.c **** 
 127:Generated_Source\PSoC5/isr_rx.c **** /*******************************************************************************
 128:Generated_Source\PSoC5/isr_rx.c **** * Function Name: isr_rx_Stop
 129:Generated_Source\PSoC5/isr_rx.c **** ********************************************************************************
 130:Generated_Source\PSoC5/isr_rx.c **** *
 131:Generated_Source\PSoC5/isr_rx.c **** * Summary:
 132:Generated_Source\PSoC5/isr_rx.c **** *   Disables and removes the interrupt.
 133:Generated_Source\PSoC5/isr_rx.c **** *
 134:Generated_Source\PSoC5/isr_rx.c **** * Parameters:  
 135:Generated_Source\PSoC5/isr_rx.c **** *   None
 136:Generated_Source\PSoC5/isr_rx.c **** *
 137:Generated_Source\PSoC5/isr_rx.c **** * Return:
 138:Generated_Source\PSoC5/isr_rx.c **** *   None
 139:Generated_Source\PSoC5/isr_rx.c **** *
 140:Generated_Source\PSoC5/isr_rx.c **** *******************************************************************************/
 141:Generated_Source\PSoC5/isr_rx.c **** void isr_rx_Stop(void)
 142:Generated_Source\PSoC5/isr_rx.c **** {
 143:Generated_Source\PSoC5/isr_rx.c ****     /* Disable this interrupt. */
 144:Generated_Source\PSoC5/isr_rx.c ****     isr_rx_Disable();
ARM GAS  C:\Users\z004c8dn\AppData\Local\Temp\cc4BsRZQ.s 			page 4


 145:Generated_Source\PSoC5/isr_rx.c **** 
 146:Generated_Source\PSoC5/isr_rx.c ****     /* Set the ISR to point to the passive one. */
 147:Generated_Source\PSoC5/isr_rx.c ****     isr_rx_SetVector(&IntDefaultHandler);
 148:Generated_Source\PSoC5/isr_rx.c **** }
 149:Generated_Source\PSoC5/isr_rx.c **** 
 150:Generated_Source\PSoC5/isr_rx.c **** 
 151:Generated_Source\PSoC5/isr_rx.c **** /*******************************************************************************
 152:Generated_Source\PSoC5/isr_rx.c **** * Function Name: isr_rx_Interrupt
 153:Generated_Source\PSoC5/isr_rx.c **** ********************************************************************************
 154:Generated_Source\PSoC5/isr_rx.c **** *
 155:Generated_Source\PSoC5/isr_rx.c **** * Summary:
 156:Generated_Source\PSoC5/isr_rx.c **** *   The default Interrupt Service Routine for isr_rx.
 157:Generated_Source\PSoC5/isr_rx.c **** *
 158:Generated_Source\PSoC5/isr_rx.c **** *   Add custom code between the coments to keep the next version of this file
 159:Generated_Source\PSoC5/isr_rx.c **** *   from over writting your code.
 160:Generated_Source\PSoC5/isr_rx.c **** *
 161:Generated_Source\PSoC5/isr_rx.c **** * Parameters:  
 162:Generated_Source\PSoC5/isr_rx.c **** *
 163:Generated_Source\PSoC5/isr_rx.c **** * Return:
 164:Generated_Source\PSoC5/isr_rx.c **** *   None
 165:Generated_Source\PSoC5/isr_rx.c **** *
 166:Generated_Source\PSoC5/isr_rx.c **** *******************************************************************************/
 167:Generated_Source\PSoC5/isr_rx.c **** CY_ISR(isr_rx_Interrupt)
 168:Generated_Source\PSoC5/isr_rx.c **** {
  28              		.loc 1 168 0
  29              		.cfi_startproc
  30              		@ args = 0, pretend = 0, frame = 0
  31              		@ frame_needed = 0, uses_anonymous_args = 0
  32 0000 08B5     		push	{r3, lr}
  33              		.cfi_def_cfa_offset 8
  34              		.cfi_offset 3, -8
  35              		.cfi_offset 14, -4
 169:Generated_Source\PSoC5/isr_rx.c ****     #ifdef isr_rx_INTERRUPT_INTERRUPT_CALLBACK
 170:Generated_Source\PSoC5/isr_rx.c ****         isr_rx_Interrupt_InterruptCallback();
 171:Generated_Source\PSoC5/isr_rx.c ****     #endif /* isr_rx_INTERRUPT_INTERRUPT_CALLBACK */ 
 172:Generated_Source\PSoC5/isr_rx.c **** 
 173:Generated_Source\PSoC5/isr_rx.c ****     /*  Place your Interrupt code here. */
 174:Generated_Source\PSoC5/isr_rx.c ****     /* `#START isr_rx_Interrupt` */
 175:Generated_Source\PSoC5/isr_rx.c ****         CyGlobalIntDisable
  36              		.loc 1 175 0
  37              		.syntax unified
  38              	@ 175 "Generated_Source\PSoC5\isr_rx.c" 1
  39 0002 72B6     		CPSID   i
  40              	@ 0 "" 2
 176:Generated_Source\PSoC5/isr_rx.c ****         //UART_PutCRLF(0);                      //debug functions
 177:Generated_Source\PSoC5/isr_rx.c ****         //UART_PutString("signal received");    //debug functions
 178:Generated_Source\PSoC5/isr_rx.c ****         //UART_PutCRLF(0);                      //debug functions
 179:Generated_Source\PSoC5/isr_rx.c ****         
 180:Generated_Source\PSoC5/isr_rx.c ****         if(gPositionCounter <4)
  41              		.loc 1 180 0
  42              		.thumb
  43              		.syntax unified
  44 0004 084B     		ldr	r3, .L5
  45 0006 1B78     		ldrb	r3, [r3]	@ zero_extendqisi2
  46 0008 DBB2     		uxtb	r3, r3
  47 000a 032B     		cmp	r3, #3
  48 000c 05D8     		bhi	.L2
ARM GAS  C:\Users\z004c8dn\AppData\Local\Temp\cc4BsRZQ.s 			page 5


 181:Generated_Source\PSoC5/isr_rx.c ****         {
 182:Generated_Source\PSoC5/isr_rx.c ****             gPositionCounter+=1;
  49              		.loc 1 182 0
  50 000e 064A     		ldr	r2, .L5
  51 0010 1378     		ldrb	r3, [r2]	@ zero_extendqisi2
  52 0012 0133     		adds	r3, r3, #1
  53 0014 DBB2     		uxtb	r3, r3
  54 0016 1370     		strb	r3, [r2]
  55 0018 02E0     		b	.L3
  56              	.L2:
 183:Generated_Source\PSoC5/isr_rx.c ****         }
 184:Generated_Source\PSoC5/isr_rx.c ****         else
 185:Generated_Source\PSoC5/isr_rx.c ****         {
 186:Generated_Source\PSoC5/isr_rx.c ****             gPositionCounter=0;
  57              		.loc 1 186 0
  58 001a 0022     		movs	r2, #0
  59 001c 024B     		ldr	r3, .L5
  60 001e 1A70     		strb	r2, [r3]
  61              	.L3:
 187:Generated_Source\PSoC5/isr_rx.c ****         }
 188:Generated_Source\PSoC5/isr_rx.c ****         UART_ClearRxBuffer();
  62              		.loc 1 188 0
  63 0020 FFF7FEFF 		bl	UART_ClearRxBuffer
  64              	.LVL0:
 189:Generated_Source\PSoC5/isr_rx.c ****         CyGlobalIntEnable
  65              		.loc 1 189 0
  66              		.syntax unified
  67              	@ 189 "Generated_Source\PSoC5\isr_rx.c" 1
  68 0024 62B6     		CPSIE   i
  69              	@ 0 "" 2
  70              		.thumb
  71              		.syntax unified
  72 0026 08BD     		pop	{r3, pc}
  73              	.L6:
  74              		.align	2
  75              	.L5:
  76 0028 00000000 		.word	gPositionCounter
  77              		.cfi_endproc
  78              	.LFE66:
  79              		.size	isr_rx_Interrupt, .-isr_rx_Interrupt
  80              		.section	.text.isr_rx_SetVector,"ax",%progbits
  81              		.align	2
  82              		.global	isr_rx_SetVector
  83              		.thumb
  84              		.thumb_func
  85              		.type	isr_rx_SetVector, %function
  86              	isr_rx_SetVector:
  87              	.LFB67:
 190:Generated_Source\PSoC5/isr_rx.c ****     /* `#END` */
 191:Generated_Source\PSoC5/isr_rx.c **** }
 192:Generated_Source\PSoC5/isr_rx.c **** 
 193:Generated_Source\PSoC5/isr_rx.c **** 
 194:Generated_Source\PSoC5/isr_rx.c **** /*******************************************************************************
 195:Generated_Source\PSoC5/isr_rx.c **** * Function Name: isr_rx_SetVector
 196:Generated_Source\PSoC5/isr_rx.c **** ********************************************************************************
 197:Generated_Source\PSoC5/isr_rx.c **** *
 198:Generated_Source\PSoC5/isr_rx.c **** * Summary:
ARM GAS  C:\Users\z004c8dn\AppData\Local\Temp\cc4BsRZQ.s 			page 6


 199:Generated_Source\PSoC5/isr_rx.c **** *   Change the ISR vector for the Interrupt. Note calling isr_rx_Start
 200:Generated_Source\PSoC5/isr_rx.c **** *   will override any effect this method would have had. To set the vector 
 201:Generated_Source\PSoC5/isr_rx.c **** *   before the component has been started use isr_rx_StartEx instead.
 202:Generated_Source\PSoC5/isr_rx.c **** * 
 203:Generated_Source\PSoC5/isr_rx.c **** *   When defining ISR functions, the CY_ISR and CY_ISR_PROTO macros should be 
 204:Generated_Source\PSoC5/isr_rx.c **** *   used to provide consistent definition across compilers:
 205:Generated_Source\PSoC5/isr_rx.c **** *
 206:Generated_Source\PSoC5/isr_rx.c **** *   Function definition example:
 207:Generated_Source\PSoC5/isr_rx.c **** *   CY_ISR(MyISR)
 208:Generated_Source\PSoC5/isr_rx.c **** *   {
 209:Generated_Source\PSoC5/isr_rx.c **** *   }
 210:Generated_Source\PSoC5/isr_rx.c **** *
 211:Generated_Source\PSoC5/isr_rx.c **** *   Function prototype example:
 212:Generated_Source\PSoC5/isr_rx.c **** *     CY_ISR_PROTO(MyISR);
 213:Generated_Source\PSoC5/isr_rx.c **** *
 214:Generated_Source\PSoC5/isr_rx.c **** * Parameters:
 215:Generated_Source\PSoC5/isr_rx.c **** *   address: Address of the ISR to set in the interrupt vector table.
 216:Generated_Source\PSoC5/isr_rx.c **** *
 217:Generated_Source\PSoC5/isr_rx.c **** * Return:
 218:Generated_Source\PSoC5/isr_rx.c **** *   None
 219:Generated_Source\PSoC5/isr_rx.c **** *
 220:Generated_Source\PSoC5/isr_rx.c **** *******************************************************************************/
 221:Generated_Source\PSoC5/isr_rx.c **** void isr_rx_SetVector(cyisraddress address)
 222:Generated_Source\PSoC5/isr_rx.c **** {
  88              		.loc 1 222 0
  89              		.cfi_startproc
  90              		@ args = 0, pretend = 0, frame = 0
  91              		@ frame_needed = 0, uses_anonymous_args = 0
  92              		@ link register save eliminated.
  93              	.LVL1:
 223:Generated_Source\PSoC5/isr_rx.c ****     cyisraddress * ramVectorTable;
 224:Generated_Source\PSoC5/isr_rx.c **** 
 225:Generated_Source\PSoC5/isr_rx.c ****     ramVectorTable = (cyisraddress *) *CYINT_VECT_TABLE;
  94              		.loc 1 225 0
  95 0000 014B     		ldr	r3, .L8
  96 0002 1B68     		ldr	r3, [r3]
  97              	.LVL2:
 226:Generated_Source\PSoC5/isr_rx.c **** 
 227:Generated_Source\PSoC5/isr_rx.c ****     ramVectorTable[CYINT_IRQ_BASE + (uint32)isr_rx__INTC_NUMBER] = address;
  98              		.loc 1 227 0
  99 0004 5864     		str	r0, [r3, #68]
 100 0006 7047     		bx	lr
 101              	.L9:
 102              		.align	2
 103              	.L8:
 104 0008 08ED00E0 		.word	-536810232
 105              		.cfi_endproc
 106              	.LFE67:
 107              		.size	isr_rx_SetVector, .-isr_rx_SetVector
 108              		.section	.text.isr_rx_GetVector,"ax",%progbits
 109              		.align	2
 110              		.global	isr_rx_GetVector
 111              		.thumb
 112              		.thumb_func
 113              		.type	isr_rx_GetVector, %function
 114              	isr_rx_GetVector:
 115              	.LFB68:
ARM GAS  C:\Users\z004c8dn\AppData\Local\Temp\cc4BsRZQ.s 			page 7


 228:Generated_Source\PSoC5/isr_rx.c **** }
 229:Generated_Source\PSoC5/isr_rx.c **** 
 230:Generated_Source\PSoC5/isr_rx.c **** 
 231:Generated_Source\PSoC5/isr_rx.c **** /*******************************************************************************
 232:Generated_Source\PSoC5/isr_rx.c **** * Function Name: isr_rx_GetVector
 233:Generated_Source\PSoC5/isr_rx.c **** ********************************************************************************
 234:Generated_Source\PSoC5/isr_rx.c **** *
 235:Generated_Source\PSoC5/isr_rx.c **** * Summary:
 236:Generated_Source\PSoC5/isr_rx.c **** *   Gets the "address" of the current ISR vector for the Interrupt.
 237:Generated_Source\PSoC5/isr_rx.c **** *
 238:Generated_Source\PSoC5/isr_rx.c **** * Parameters:
 239:Generated_Source\PSoC5/isr_rx.c **** *   None
 240:Generated_Source\PSoC5/isr_rx.c **** *
 241:Generated_Source\PSoC5/isr_rx.c **** * Return:
 242:Generated_Source\PSoC5/isr_rx.c **** *   Address of the ISR in the interrupt vector table.
 243:Generated_Source\PSoC5/isr_rx.c **** *
 244:Generated_Source\PSoC5/isr_rx.c **** *******************************************************************************/
 245:Generated_Source\PSoC5/isr_rx.c **** cyisraddress isr_rx_GetVector(void)
 246:Generated_Source\PSoC5/isr_rx.c **** {
 116              		.loc 1 246 0
 117              		.cfi_startproc
 118              		@ args = 0, pretend = 0, frame = 0
 119              		@ frame_needed = 0, uses_anonymous_args = 0
 120              		@ link register save eliminated.
 247:Generated_Source\PSoC5/isr_rx.c ****     cyisraddress * ramVectorTable;
 248:Generated_Source\PSoC5/isr_rx.c **** 
 249:Generated_Source\PSoC5/isr_rx.c ****     ramVectorTable = (cyisraddress *) *CYINT_VECT_TABLE;
 121              		.loc 1 249 0
 122 0000 014B     		ldr	r3, .L11
 123 0002 1B68     		ldr	r3, [r3]
 124              	.LVL3:
 250:Generated_Source\PSoC5/isr_rx.c **** 
 251:Generated_Source\PSoC5/isr_rx.c ****     return ramVectorTable[CYINT_IRQ_BASE + (uint32)isr_rx__INTC_NUMBER];
 252:Generated_Source\PSoC5/isr_rx.c **** }
 125              		.loc 1 252 0
 126 0004 586C     		ldr	r0, [r3, #68]
 127 0006 7047     		bx	lr
 128              	.L12:
 129              		.align	2
 130              	.L11:
 131 0008 08ED00E0 		.word	-536810232
 132              		.cfi_endproc
 133              	.LFE68:
 134              		.size	isr_rx_GetVector, .-isr_rx_GetVector
 135              		.section	.text.isr_rx_SetPriority,"ax",%progbits
 136              		.align	2
 137              		.global	isr_rx_SetPriority
 138              		.thumb
 139              		.thumb_func
 140              		.type	isr_rx_SetPriority, %function
 141              	isr_rx_SetPriority:
 142              	.LFB69:
 253:Generated_Source\PSoC5/isr_rx.c **** 
 254:Generated_Source\PSoC5/isr_rx.c **** 
 255:Generated_Source\PSoC5/isr_rx.c **** /*******************************************************************************
 256:Generated_Source\PSoC5/isr_rx.c **** * Function Name: isr_rx_SetPriority
 257:Generated_Source\PSoC5/isr_rx.c **** ********************************************************************************
ARM GAS  C:\Users\z004c8dn\AppData\Local\Temp\cc4BsRZQ.s 			page 8


 258:Generated_Source\PSoC5/isr_rx.c **** *
 259:Generated_Source\PSoC5/isr_rx.c **** * Summary:
 260:Generated_Source\PSoC5/isr_rx.c **** *   Sets the Priority of the Interrupt. 
 261:Generated_Source\PSoC5/isr_rx.c **** *
 262:Generated_Source\PSoC5/isr_rx.c **** *   Note calling isr_rx_Start or isr_rx_StartEx will 
 263:Generated_Source\PSoC5/isr_rx.c **** *   override any effect this API would have had. This API should only be called
 264:Generated_Source\PSoC5/isr_rx.c **** *   after isr_rx_Start or isr_rx_StartEx has been called. 
 265:Generated_Source\PSoC5/isr_rx.c **** *   To set the initial priority for the component, use the Design-Wide Resources
 266:Generated_Source\PSoC5/isr_rx.c **** *   Interrupt Editor.
 267:Generated_Source\PSoC5/isr_rx.c **** *
 268:Generated_Source\PSoC5/isr_rx.c **** *   Note This API has no effect on Non-maskable interrupt NMI).
 269:Generated_Source\PSoC5/isr_rx.c **** *
 270:Generated_Source\PSoC5/isr_rx.c **** * Parameters:
 271:Generated_Source\PSoC5/isr_rx.c **** *   priority: Priority of the interrupt, 0 being the highest priority
 272:Generated_Source\PSoC5/isr_rx.c **** *             PSoC 3 and PSoC 5LP: Priority is from 0 to 7.
 273:Generated_Source\PSoC5/isr_rx.c **** *             PSoC 4: Priority is from 0 to 3.
 274:Generated_Source\PSoC5/isr_rx.c **** *
 275:Generated_Source\PSoC5/isr_rx.c **** * Return:
 276:Generated_Source\PSoC5/isr_rx.c **** *   None
 277:Generated_Source\PSoC5/isr_rx.c **** *
 278:Generated_Source\PSoC5/isr_rx.c **** *******************************************************************************/
 279:Generated_Source\PSoC5/isr_rx.c **** void isr_rx_SetPriority(uint8 priority)
 280:Generated_Source\PSoC5/isr_rx.c **** {
 143              		.loc 1 280 0
 144              		.cfi_startproc
 145              		@ args = 0, pretend = 0, frame = 0
 146              		@ frame_needed = 0, uses_anonymous_args = 0
 147              		@ link register save eliminated.
 148              	.LVL4:
 281:Generated_Source\PSoC5/isr_rx.c ****     *isr_rx_INTC_PRIOR = priority << 5;
 149              		.loc 1 281 0
 150 0000 4001     		lsls	r0, r0, #5
 151              	.LVL5:
 152 0002 C0B2     		uxtb	r0, r0
 153 0004 014B     		ldr	r3, .L14
 154 0006 1870     		strb	r0, [r3]
 155 0008 7047     		bx	lr
 156              	.L15:
 157 000a 00BF     		.align	2
 158              	.L14:
 159 000c 01E400E0 		.word	-536812543
 160              		.cfi_endproc
 161              	.LFE69:
 162              		.size	isr_rx_SetPriority, .-isr_rx_SetPriority
 163              		.section	.text.isr_rx_GetPriority,"ax",%progbits
 164              		.align	2
 165              		.global	isr_rx_GetPriority
 166              		.thumb
 167              		.thumb_func
 168              		.type	isr_rx_GetPriority, %function
 169              	isr_rx_GetPriority:
 170              	.LFB70:
 282:Generated_Source\PSoC5/isr_rx.c **** }
 283:Generated_Source\PSoC5/isr_rx.c **** 
 284:Generated_Source\PSoC5/isr_rx.c **** 
 285:Generated_Source\PSoC5/isr_rx.c **** /*******************************************************************************
 286:Generated_Source\PSoC5/isr_rx.c **** * Function Name: isr_rx_GetPriority
ARM GAS  C:\Users\z004c8dn\AppData\Local\Temp\cc4BsRZQ.s 			page 9


 287:Generated_Source\PSoC5/isr_rx.c **** ********************************************************************************
 288:Generated_Source\PSoC5/isr_rx.c **** *
 289:Generated_Source\PSoC5/isr_rx.c **** * Summary:
 290:Generated_Source\PSoC5/isr_rx.c **** *   Gets the Priority of the Interrupt.
 291:Generated_Source\PSoC5/isr_rx.c **** *
 292:Generated_Source\PSoC5/isr_rx.c **** * Parameters:
 293:Generated_Source\PSoC5/isr_rx.c **** *   None
 294:Generated_Source\PSoC5/isr_rx.c **** *
 295:Generated_Source\PSoC5/isr_rx.c **** * Return:
 296:Generated_Source\PSoC5/isr_rx.c **** *   Priority of the interrupt, 0 being the highest priority
 297:Generated_Source\PSoC5/isr_rx.c **** *    PSoC 3 and PSoC 5LP: Priority is from 0 to 7.
 298:Generated_Source\PSoC5/isr_rx.c **** *    PSoC 4: Priority is from 0 to 3.
 299:Generated_Source\PSoC5/isr_rx.c **** *
 300:Generated_Source\PSoC5/isr_rx.c **** *******************************************************************************/
 301:Generated_Source\PSoC5/isr_rx.c **** uint8 isr_rx_GetPriority(void)
 302:Generated_Source\PSoC5/isr_rx.c **** {
 171              		.loc 1 302 0
 172              		.cfi_startproc
 173              		@ args = 0, pretend = 0, frame = 0
 174              		@ frame_needed = 0, uses_anonymous_args = 0
 175              		@ link register save eliminated.
 303:Generated_Source\PSoC5/isr_rx.c ****     uint8 priority;
 304:Generated_Source\PSoC5/isr_rx.c **** 
 305:Generated_Source\PSoC5/isr_rx.c **** 
 306:Generated_Source\PSoC5/isr_rx.c ****     priority = *isr_rx_INTC_PRIOR >> 5;
 176              		.loc 1 306 0
 177 0000 014B     		ldr	r3, .L17
 178 0002 1878     		ldrb	r0, [r3]	@ zero_extendqisi2
 179              	.LVL6:
 307:Generated_Source\PSoC5/isr_rx.c **** 
 308:Generated_Source\PSoC5/isr_rx.c ****     return priority;
 309:Generated_Source\PSoC5/isr_rx.c **** }
 180              		.loc 1 309 0
 181 0004 4009     		lsrs	r0, r0, #5
 182              	.LVL7:
 183 0006 7047     		bx	lr
 184              	.L18:
 185              		.align	2
 186              	.L17:
 187 0008 01E400E0 		.word	-536812543
 188              		.cfi_endproc
 189              	.LFE70:
 190              		.size	isr_rx_GetPriority, .-isr_rx_GetPriority
 191              		.section	.text.isr_rx_Enable,"ax",%progbits
 192              		.align	2
 193              		.global	isr_rx_Enable
 194              		.thumb
 195              		.thumb_func
 196              		.type	isr_rx_Enable, %function
 197              	isr_rx_Enable:
 198              	.LFB71:
 310:Generated_Source\PSoC5/isr_rx.c **** 
 311:Generated_Source\PSoC5/isr_rx.c **** 
 312:Generated_Source\PSoC5/isr_rx.c **** /*******************************************************************************
 313:Generated_Source\PSoC5/isr_rx.c **** * Function Name: isr_rx_Enable
 314:Generated_Source\PSoC5/isr_rx.c **** ********************************************************************************
 315:Generated_Source\PSoC5/isr_rx.c **** *
ARM GAS  C:\Users\z004c8dn\AppData\Local\Temp\cc4BsRZQ.s 			page 10


 316:Generated_Source\PSoC5/isr_rx.c **** * Summary:
 317:Generated_Source\PSoC5/isr_rx.c **** *   Enables the interrupt to the interrupt controller. Do not call this function
 318:Generated_Source\PSoC5/isr_rx.c **** *   unless ISR_Start() has been called or the functionality of the ISR_Start() 
 319:Generated_Source\PSoC5/isr_rx.c **** *   function, which sets the vector and the priority, has been called.
 320:Generated_Source\PSoC5/isr_rx.c **** *
 321:Generated_Source\PSoC5/isr_rx.c **** * Parameters:
 322:Generated_Source\PSoC5/isr_rx.c **** *   None
 323:Generated_Source\PSoC5/isr_rx.c **** *
 324:Generated_Source\PSoC5/isr_rx.c **** * Return:
 325:Generated_Source\PSoC5/isr_rx.c **** *   None
 326:Generated_Source\PSoC5/isr_rx.c **** *
 327:Generated_Source\PSoC5/isr_rx.c **** *******************************************************************************/
 328:Generated_Source\PSoC5/isr_rx.c **** void isr_rx_Enable(void)
 329:Generated_Source\PSoC5/isr_rx.c **** {
 199              		.loc 1 329 0
 200              		.cfi_startproc
 201              		@ args = 0, pretend = 0, frame = 0
 202              		@ frame_needed = 0, uses_anonymous_args = 0
 203              		@ link register save eliminated.
 330:Generated_Source\PSoC5/isr_rx.c ****     /* Enable the general interrupt. */
 331:Generated_Source\PSoC5/isr_rx.c ****     *isr_rx_INTC_SET_EN = isr_rx__INTC_MASK;
 204              		.loc 1 331 0
 205 0000 0222     		movs	r2, #2
 206 0002 014B     		ldr	r3, .L20
 207 0004 1A60     		str	r2, [r3]
 208 0006 7047     		bx	lr
 209              	.L21:
 210              		.align	2
 211              	.L20:
 212 0008 00E100E0 		.word	-536813312
 213              		.cfi_endproc
 214              	.LFE71:
 215              		.size	isr_rx_Enable, .-isr_rx_Enable
 216              		.section	.text.isr_rx_GetState,"ax",%progbits
 217              		.align	2
 218              		.global	isr_rx_GetState
 219              		.thumb
 220              		.thumb_func
 221              		.type	isr_rx_GetState, %function
 222              	isr_rx_GetState:
 223              	.LFB72:
 332:Generated_Source\PSoC5/isr_rx.c **** }
 333:Generated_Source\PSoC5/isr_rx.c **** 
 334:Generated_Source\PSoC5/isr_rx.c **** 
 335:Generated_Source\PSoC5/isr_rx.c **** /*******************************************************************************
 336:Generated_Source\PSoC5/isr_rx.c **** * Function Name: isr_rx_GetState
 337:Generated_Source\PSoC5/isr_rx.c **** ********************************************************************************
 338:Generated_Source\PSoC5/isr_rx.c **** *
 339:Generated_Source\PSoC5/isr_rx.c **** * Summary:
 340:Generated_Source\PSoC5/isr_rx.c **** *   Gets the state (enabled, disabled) of the Interrupt.
 341:Generated_Source\PSoC5/isr_rx.c **** *
 342:Generated_Source\PSoC5/isr_rx.c **** * Parameters:
 343:Generated_Source\PSoC5/isr_rx.c **** *   None
 344:Generated_Source\PSoC5/isr_rx.c **** *
 345:Generated_Source\PSoC5/isr_rx.c **** * Return:
 346:Generated_Source\PSoC5/isr_rx.c **** *   1 if enabled, 0 if disabled.
 347:Generated_Source\PSoC5/isr_rx.c **** *
ARM GAS  C:\Users\z004c8dn\AppData\Local\Temp\cc4BsRZQ.s 			page 11


 348:Generated_Source\PSoC5/isr_rx.c **** *******************************************************************************/
 349:Generated_Source\PSoC5/isr_rx.c **** uint8 isr_rx_GetState(void)
 350:Generated_Source\PSoC5/isr_rx.c **** {
 224              		.loc 1 350 0
 225              		.cfi_startproc
 226              		@ args = 0, pretend = 0, frame = 0
 227              		@ frame_needed = 0, uses_anonymous_args = 0
 228              		@ link register save eliminated.
 351:Generated_Source\PSoC5/isr_rx.c ****     /* Get the state of the general interrupt. */
 352:Generated_Source\PSoC5/isr_rx.c ****     return ((*isr_rx_INTC_SET_EN & (uint32)isr_rx__INTC_MASK) != 0u) ? 1u:0u;
 229              		.loc 1 352 0
 230 0000 044B     		ldr	r3, .L25
 231 0002 1B68     		ldr	r3, [r3]
 232 0004 13F0020F 		tst	r3, #2
 233 0008 01D0     		beq	.L24
 234 000a 0120     		movs	r0, #1
 235 000c 7047     		bx	lr
 236              	.L24:
 237 000e 0020     		movs	r0, #0
 353:Generated_Source\PSoC5/isr_rx.c **** }
 238              		.loc 1 353 0
 239 0010 7047     		bx	lr
 240              	.L26:
 241 0012 00BF     		.align	2
 242              	.L25:
 243 0014 00E100E0 		.word	-536813312
 244              		.cfi_endproc
 245              	.LFE72:
 246              		.size	isr_rx_GetState, .-isr_rx_GetState
 247              		.section	.text.isr_rx_Disable,"ax",%progbits
 248              		.align	2
 249              		.global	isr_rx_Disable
 250              		.thumb
 251              		.thumb_func
 252              		.type	isr_rx_Disable, %function
 253              	isr_rx_Disable:
 254              	.LFB73:
 354:Generated_Source\PSoC5/isr_rx.c **** 
 355:Generated_Source\PSoC5/isr_rx.c **** 
 356:Generated_Source\PSoC5/isr_rx.c **** /*******************************************************************************
 357:Generated_Source\PSoC5/isr_rx.c **** * Function Name: isr_rx_Disable
 358:Generated_Source\PSoC5/isr_rx.c **** ********************************************************************************
 359:Generated_Source\PSoC5/isr_rx.c **** *
 360:Generated_Source\PSoC5/isr_rx.c **** * Summary:
 361:Generated_Source\PSoC5/isr_rx.c **** *   Disables the Interrupt in the interrupt controller.
 362:Generated_Source\PSoC5/isr_rx.c **** *
 363:Generated_Source\PSoC5/isr_rx.c **** * Parameters:
 364:Generated_Source\PSoC5/isr_rx.c **** *   None
 365:Generated_Source\PSoC5/isr_rx.c **** *
 366:Generated_Source\PSoC5/isr_rx.c **** * Return:
 367:Generated_Source\PSoC5/isr_rx.c **** *   None
 368:Generated_Source\PSoC5/isr_rx.c **** *
 369:Generated_Source\PSoC5/isr_rx.c **** *******************************************************************************/
 370:Generated_Source\PSoC5/isr_rx.c **** void isr_rx_Disable(void)
 371:Generated_Source\PSoC5/isr_rx.c **** {
 255              		.loc 1 371 0
 256              		.cfi_startproc
ARM GAS  C:\Users\z004c8dn\AppData\Local\Temp\cc4BsRZQ.s 			page 12


 257              		@ args = 0, pretend = 0, frame = 0
 258              		@ frame_needed = 0, uses_anonymous_args = 0
 259              		@ link register save eliminated.
 372:Generated_Source\PSoC5/isr_rx.c ****     /* Disable the general interrupt. */
 373:Generated_Source\PSoC5/isr_rx.c ****     *isr_rx_INTC_CLR_EN = isr_rx__INTC_MASK;
 260              		.loc 1 373 0
 261 0000 0222     		movs	r2, #2
 262 0002 014B     		ldr	r3, .L28
 263 0004 1A60     		str	r2, [r3]
 264 0006 7047     		bx	lr
 265              	.L29:
 266              		.align	2
 267              	.L28:
 268 0008 80E100E0 		.word	-536813184
 269              		.cfi_endproc
 270              	.LFE73:
 271              		.size	isr_rx_Disable, .-isr_rx_Disable
 272              		.section	.text.isr_rx_Start,"ax",%progbits
 273              		.align	2
 274              		.global	isr_rx_Start
 275              		.thumb
 276              		.thumb_func
 277              		.type	isr_rx_Start, %function
 278              	isr_rx_Start:
 279              	.LFB63:
  69:Generated_Source\PSoC5/isr_rx.c ****     /* For all we know the interrupt is active. */
 280              		.loc 1 69 0
 281              		.cfi_startproc
 282              		@ args = 0, pretend = 0, frame = 0
 283              		@ frame_needed = 0, uses_anonymous_args = 0
 284 0000 08B5     		push	{r3, lr}
 285              		.cfi_def_cfa_offset 8
 286              		.cfi_offset 3, -8
 287              		.cfi_offset 14, -4
  71:Generated_Source\PSoC5/isr_rx.c **** 
 288              		.loc 1 71 0
 289 0002 FFF7FEFF 		bl	isr_rx_Disable
 290              	.LVL8:
  74:Generated_Source\PSoC5/isr_rx.c **** 
 291              		.loc 1 74 0
 292 0006 0448     		ldr	r0, .L32
 293 0008 FFF7FEFF 		bl	isr_rx_SetVector
 294              	.LVL9:
  77:Generated_Source\PSoC5/isr_rx.c **** 
 295              		.loc 1 77 0
 296 000c 0720     		movs	r0, #7
 297 000e FFF7FEFF 		bl	isr_rx_SetPriority
 298              	.LVL10:
  80:Generated_Source\PSoC5/isr_rx.c **** }
 299              		.loc 1 80 0
 300 0012 FFF7FEFF 		bl	isr_rx_Enable
 301              	.LVL11:
 302 0016 08BD     		pop	{r3, pc}
 303              	.L33:
 304              		.align	2
 305              	.L32:
 306 0018 00000000 		.word	isr_rx_Interrupt
ARM GAS  C:\Users\z004c8dn\AppData\Local\Temp\cc4BsRZQ.s 			page 13


 307              		.cfi_endproc
 308              	.LFE63:
 309              		.size	isr_rx_Start, .-isr_rx_Start
 310              		.section	.text.isr_rx_StartEx,"ax",%progbits
 311              		.align	2
 312              		.global	isr_rx_StartEx
 313              		.thumb
 314              		.thumb_func
 315              		.type	isr_rx_StartEx, %function
 316              	isr_rx_StartEx:
 317              	.LFB64:
 112:Generated_Source\PSoC5/isr_rx.c ****     /* For all we know the interrupt is active. */
 318              		.loc 1 112 0
 319              		.cfi_startproc
 320              		@ args = 0, pretend = 0, frame = 0
 321              		@ frame_needed = 0, uses_anonymous_args = 0
 322              	.LVL12:
 323 0000 10B5     		push	{r4, lr}
 324              		.cfi_def_cfa_offset 8
 325              		.cfi_offset 4, -8
 326              		.cfi_offset 14, -4
 327 0002 0446     		mov	r4, r0
 114:Generated_Source\PSoC5/isr_rx.c **** 
 328              		.loc 1 114 0
 329 0004 FFF7FEFF 		bl	isr_rx_Disable
 330              	.LVL13:
 117:Generated_Source\PSoC5/isr_rx.c **** 
 331              		.loc 1 117 0
 332 0008 2046     		mov	r0, r4
 333 000a FFF7FEFF 		bl	isr_rx_SetVector
 334              	.LVL14:
 120:Generated_Source\PSoC5/isr_rx.c **** 
 335              		.loc 1 120 0
 336 000e 0720     		movs	r0, #7
 337 0010 FFF7FEFF 		bl	isr_rx_SetPriority
 338              	.LVL15:
 123:Generated_Source\PSoC5/isr_rx.c **** }
 339              		.loc 1 123 0
 340 0014 FFF7FEFF 		bl	isr_rx_Enable
 341              	.LVL16:
 342 0018 10BD     		pop	{r4, pc}
 343              		.cfi_endproc
 344              	.LFE64:
 345              		.size	isr_rx_StartEx, .-isr_rx_StartEx
 346 001a 00BF     		.section	.text.isr_rx_Stop,"ax",%progbits
 347              		.align	2
 348              		.global	isr_rx_Stop
 349              		.thumb
 350              		.thumb_func
 351              		.type	isr_rx_Stop, %function
 352              	isr_rx_Stop:
 353              	.LFB65:
 142:Generated_Source\PSoC5/isr_rx.c ****     /* Disable this interrupt. */
 354              		.loc 1 142 0
 355              		.cfi_startproc
 356              		@ args = 0, pretend = 0, frame = 0
 357              		@ frame_needed = 0, uses_anonymous_args = 0
ARM GAS  C:\Users\z004c8dn\AppData\Local\Temp\cc4BsRZQ.s 			page 14


 358 0000 08B5     		push	{r3, lr}
 359              		.cfi_def_cfa_offset 8
 360              		.cfi_offset 3, -8
 361              		.cfi_offset 14, -4
 144:Generated_Source\PSoC5/isr_rx.c **** 
 362              		.loc 1 144 0
 363 0002 FFF7FEFF 		bl	isr_rx_Disable
 364              	.LVL17:
 147:Generated_Source\PSoC5/isr_rx.c **** }
 365              		.loc 1 147 0
 366 0006 0248     		ldr	r0, .L38
 367 0008 FFF7FEFF 		bl	isr_rx_SetVector
 368              	.LVL18:
 369 000c 08BD     		pop	{r3, pc}
 370              	.L39:
 371 000e 00BF     		.align	2
 372              	.L38:
 373 0010 00000000 		.word	IntDefaultHandler
 374              		.cfi_endproc
 375              	.LFE65:
 376              		.size	isr_rx_Stop, .-isr_rx_Stop
 377              		.section	.text.isr_rx_SetPending,"ax",%progbits
 378              		.align	2
 379              		.global	isr_rx_SetPending
 380              		.thumb
 381              		.thumb_func
 382              		.type	isr_rx_SetPending, %function
 383              	isr_rx_SetPending:
 384              	.LFB74:
 374:Generated_Source\PSoC5/isr_rx.c **** }
 375:Generated_Source\PSoC5/isr_rx.c **** 
 376:Generated_Source\PSoC5/isr_rx.c **** 
 377:Generated_Source\PSoC5/isr_rx.c **** /*******************************************************************************
 378:Generated_Source\PSoC5/isr_rx.c **** * Function Name: isr_rx_SetPending
 379:Generated_Source\PSoC5/isr_rx.c **** ********************************************************************************
 380:Generated_Source\PSoC5/isr_rx.c **** *
 381:Generated_Source\PSoC5/isr_rx.c **** * Summary:
 382:Generated_Source\PSoC5/isr_rx.c **** *   Causes the Interrupt to enter the pending state, a software method of
 383:Generated_Source\PSoC5/isr_rx.c **** *   generating the interrupt.
 384:Generated_Source\PSoC5/isr_rx.c **** *
 385:Generated_Source\PSoC5/isr_rx.c **** * Parameters:
 386:Generated_Source\PSoC5/isr_rx.c **** *   None
 387:Generated_Source\PSoC5/isr_rx.c **** *
 388:Generated_Source\PSoC5/isr_rx.c **** * Return:
 389:Generated_Source\PSoC5/isr_rx.c **** *   None
 390:Generated_Source\PSoC5/isr_rx.c **** *
 391:Generated_Source\PSoC5/isr_rx.c **** * Side Effects:
 392:Generated_Source\PSoC5/isr_rx.c **** *   If interrupts are enabled and the interrupt is set up properly, the ISR is
 393:Generated_Source\PSoC5/isr_rx.c **** *   entered (depending on the priority of this interrupt and other pending 
 394:Generated_Source\PSoC5/isr_rx.c **** *   interrupts).
 395:Generated_Source\PSoC5/isr_rx.c **** *
 396:Generated_Source\PSoC5/isr_rx.c **** *******************************************************************************/
 397:Generated_Source\PSoC5/isr_rx.c **** void isr_rx_SetPending(void)
 398:Generated_Source\PSoC5/isr_rx.c **** {
 385              		.loc 1 398 0
 386              		.cfi_startproc
 387              		@ args = 0, pretend = 0, frame = 0
ARM GAS  C:\Users\z004c8dn\AppData\Local\Temp\cc4BsRZQ.s 			page 15


 388              		@ frame_needed = 0, uses_anonymous_args = 0
 389              		@ link register save eliminated.
 399:Generated_Source\PSoC5/isr_rx.c ****     *isr_rx_INTC_SET_PD = isr_rx__INTC_MASK;
 390              		.loc 1 399 0
 391 0000 0222     		movs	r2, #2
 392 0002 014B     		ldr	r3, .L41
 393 0004 1A60     		str	r2, [r3]
 394 0006 7047     		bx	lr
 395              	.L42:
 396              		.align	2
 397              	.L41:
 398 0008 00E200E0 		.word	-536813056
 399              		.cfi_endproc
 400              	.LFE74:
 401              		.size	isr_rx_SetPending, .-isr_rx_SetPending
 402              		.section	.text.isr_rx_ClearPending,"ax",%progbits
 403              		.align	2
 404              		.global	isr_rx_ClearPending
 405              		.thumb
 406              		.thumb_func
 407              		.type	isr_rx_ClearPending, %function
 408              	isr_rx_ClearPending:
 409              	.LFB75:
 400:Generated_Source\PSoC5/isr_rx.c **** }
 401:Generated_Source\PSoC5/isr_rx.c **** 
 402:Generated_Source\PSoC5/isr_rx.c **** 
 403:Generated_Source\PSoC5/isr_rx.c **** /*******************************************************************************
 404:Generated_Source\PSoC5/isr_rx.c **** * Function Name: isr_rx_ClearPending
 405:Generated_Source\PSoC5/isr_rx.c **** ********************************************************************************
 406:Generated_Source\PSoC5/isr_rx.c **** *
 407:Generated_Source\PSoC5/isr_rx.c **** * Summary:
 408:Generated_Source\PSoC5/isr_rx.c **** *   Clears a pending interrupt in the interrupt controller.
 409:Generated_Source\PSoC5/isr_rx.c **** *
 410:Generated_Source\PSoC5/isr_rx.c **** *   Note Some interrupt sources are clear-on-read and require the block 
 411:Generated_Source\PSoC5/isr_rx.c **** *   interrupt/status register to be read/cleared with the appropriate block API 
 412:Generated_Source\PSoC5/isr_rx.c **** *   (GPIO, UART, and so on). Otherwise the ISR will continue to remain in 
 413:Generated_Source\PSoC5/isr_rx.c **** *   pending state even though the interrupt itself is cleared using this API.
 414:Generated_Source\PSoC5/isr_rx.c **** *
 415:Generated_Source\PSoC5/isr_rx.c **** * Parameters:
 416:Generated_Source\PSoC5/isr_rx.c **** *   None
 417:Generated_Source\PSoC5/isr_rx.c **** *
 418:Generated_Source\PSoC5/isr_rx.c **** * Return:
 419:Generated_Source\PSoC5/isr_rx.c **** *   None
 420:Generated_Source\PSoC5/isr_rx.c **** *
 421:Generated_Source\PSoC5/isr_rx.c **** *******************************************************************************/
 422:Generated_Source\PSoC5/isr_rx.c **** void isr_rx_ClearPending(void)
 423:Generated_Source\PSoC5/isr_rx.c **** {
 410              		.loc 1 423 0
 411              		.cfi_startproc
 412              		@ args = 0, pretend = 0, frame = 0
 413              		@ frame_needed = 0, uses_anonymous_args = 0
 414              		@ link register save eliminated.
 424:Generated_Source\PSoC5/isr_rx.c ****     *isr_rx_INTC_CLR_PD = isr_rx__INTC_MASK;
 415              		.loc 1 424 0
 416 0000 0222     		movs	r2, #2
 417 0002 014B     		ldr	r3, .L44
 418 0004 1A60     		str	r2, [r3]
ARM GAS  C:\Users\z004c8dn\AppData\Local\Temp\cc4BsRZQ.s 			page 16


 419 0006 7047     		bx	lr
 420              	.L45:
 421              		.align	2
 422              	.L44:
 423 0008 80E200E0 		.word	-536812928
 424              		.cfi_endproc
 425              	.LFE75:
 426              		.size	isr_rx_ClearPending, .-isr_rx_ClearPending
 427              		.text
 428              	.Letext0:
 429              		.file 2 "c:\\program files (x86)\\cypress\\psoc creator\\4.4\\psoc creator\\import\\gnu\\arm\\5.4.
 430              		.file 3 "c:\\program files (x86)\\cypress\\psoc creator\\4.4\\psoc creator\\import\\gnu\\arm\\5.4.
 431              		.file 4 "Generated_Source\\PSoC5/cytypes.h"
 432              		.file 5 "Generated_Source\\PSoC5/core_cm3.h"
 433              		.file 6 "Generated_Source\\PSoC5\\UART.h"