ARM GAS  C:\Users\z004c8dn\AppData\Local\Temp\ccwCGOfd.s 			page 1


   1              		.syntax unified
   2              		.cpu cortex-m3
   3              		.fpu softvfp
   4              		.eabi_attribute 20, 1
   5              		.eabi_attribute 21, 1
   6              		.eabi_attribute 23, 3
   7              		.eabi_attribute 24, 1
   8              		.eabi_attribute 25, 1
   9              		.eabi_attribute 26, 1
  10              		.eabi_attribute 30, 1
  11              		.eabi_attribute 34, 1
  12              		.eabi_attribute 18, 4
  13              		.thumb
  14              		.syntax unified
  15              		.file	"isr_pwm.c"
  16              		.text
  17              	.Ltext0:
  18              		.cfi_sections	.debug_frame
  19              		.section	.text.isr_pwm_Interrupt,"ax",%progbits
  20              		.align	2
  21              		.global	isr_pwm_Interrupt
  22              		.thumb
  23              		.thumb_func
  24              		.type	isr_pwm_Interrupt, %function
  25              	isr_pwm_Interrupt:
  26              	.LFB67:
  27              		.file 1 "Generated_Source\\PSoC5\\isr_pwm.c"
   1:Generated_Source\PSoC5/isr_pwm.c **** /*******************************************************************************
   2:Generated_Source\PSoC5/isr_pwm.c **** * File Name: isr_pwm.c  
   3:Generated_Source\PSoC5/isr_pwm.c **** * Version 1.70
   4:Generated_Source\PSoC5/isr_pwm.c **** *
   5:Generated_Source\PSoC5/isr_pwm.c **** *  Description:
   6:Generated_Source\PSoC5/isr_pwm.c **** *   API for controlling the state of an interrupt.
   7:Generated_Source\PSoC5/isr_pwm.c **** *   EDITED BY:   Andreas BOTH
   8:Generated_Source\PSoC5/isr_pwm.c **** *   DATE:        2024-04-14
   9:Generated_Source\PSoC5/isr_pwm.c **** *   COURSE ID:   tx00db04
  10:Generated_Source\PSoC5/isr_pwm.c **** *   Description: PSoC course excercise 2, 
  11:Generated_Source\PSoC5/isr_pwm.c **** *                Position control of a servo motor using PWM and interrupts
  12:Generated_Source\PSoC5/isr_pwm.c **** *
  13:Generated_Source\PSoC5/isr_pwm.c **** *  Note:
  14:Generated_Source\PSoC5/isr_pwm.c **** *
  15:Generated_Source\PSoC5/isr_pwm.c **** ********************************************************************************
  16:Generated_Source\PSoC5/isr_pwm.c **** * Copyright 2008-2015, Cypress Semiconductor Corporation.  All rights reserved.
  17:Generated_Source\PSoC5/isr_pwm.c **** * You may use this file only in accordance with the license, terms, conditions, 
  18:Generated_Source\PSoC5/isr_pwm.c **** * disclaimers, and limitations in the end user license agreement accompanying 
  19:Generated_Source\PSoC5/isr_pwm.c **** * the software package with which this file was provided.
  20:Generated_Source\PSoC5/isr_pwm.c **** *******************************************************************************/
  21:Generated_Source\PSoC5/isr_pwm.c **** 
  22:Generated_Source\PSoC5/isr_pwm.c **** 
  23:Generated_Source\PSoC5/isr_pwm.c **** #include <cydevice_trm.h>
  24:Generated_Source\PSoC5/isr_pwm.c **** #include <CyLib.h>
  25:Generated_Source\PSoC5/isr_pwm.c **** #include <isr_pwm.h>
  26:Generated_Source\PSoC5/isr_pwm.c **** #include "cyapicallbacks.h"
  27:Generated_Source\PSoC5/isr_pwm.c **** 
  28:Generated_Source\PSoC5/isr_pwm.c **** #if !defined(isr_pwm__REMOVED) /* Check for removal by optimization */
  29:Generated_Source\PSoC5/isr_pwm.c **** 
  30:Generated_Source\PSoC5/isr_pwm.c **** /*******************************************************************************
ARM GAS  C:\Users\z004c8dn\AppData\Local\Temp\ccwCGOfd.s 			page 2


  31:Generated_Source\PSoC5/isr_pwm.c **** *  Place your includes, defines and code here 
  32:Generated_Source\PSoC5/isr_pwm.c **** ********************************************************************************/
  33:Generated_Source\PSoC5/isr_pwm.c **** /* `#START isr_pwm_intc` */
  34:Generated_Source\PSoC5/isr_pwm.c ****     #include "project.h"
  35:Generated_Source\PSoC5/isr_pwm.c ****     #include <stdio.h>
  36:Generated_Source\PSoC5/isr_pwm.c ****     extern volatile int gTargetPosition;
  37:Generated_Source\PSoC5/isr_pwm.c ****     extern volatile int gCurrentPosition;
  38:Generated_Source\PSoC5/isr_pwm.c **** /* `#END` */
  39:Generated_Source\PSoC5/isr_pwm.c **** 
  40:Generated_Source\PSoC5/isr_pwm.c **** #ifndef CYINT_IRQ_BASE
  41:Generated_Source\PSoC5/isr_pwm.c **** #define CYINT_IRQ_BASE      16
  42:Generated_Source\PSoC5/isr_pwm.c **** #endif /* CYINT_IRQ_BASE */
  43:Generated_Source\PSoC5/isr_pwm.c **** #ifndef CYINT_VECT_TABLE
  44:Generated_Source\PSoC5/isr_pwm.c **** #define CYINT_VECT_TABLE    ((cyisraddress **) CYREG_NVIC_VECT_OFFSET)
  45:Generated_Source\PSoC5/isr_pwm.c **** #endif /* CYINT_VECT_TABLE */
  46:Generated_Source\PSoC5/isr_pwm.c **** 
  47:Generated_Source\PSoC5/isr_pwm.c **** /* Declared in startup, used to set unused interrupts to. */
  48:Generated_Source\PSoC5/isr_pwm.c **** CY_ISR_PROTO(IntDefaultHandler);
  49:Generated_Source\PSoC5/isr_pwm.c **** 
  50:Generated_Source\PSoC5/isr_pwm.c **** 
  51:Generated_Source\PSoC5/isr_pwm.c **** /*******************************************************************************
  52:Generated_Source\PSoC5/isr_pwm.c **** * Function Name: isr_pwm_Start
  53:Generated_Source\PSoC5/isr_pwm.c **** ********************************************************************************
  54:Generated_Source\PSoC5/isr_pwm.c **** *
  55:Generated_Source\PSoC5/isr_pwm.c **** * Summary:
  56:Generated_Source\PSoC5/isr_pwm.c **** *  Set up the interrupt and enable it. This function disables the interrupt, 
  57:Generated_Source\PSoC5/isr_pwm.c **** *  sets the default interrupt vector, sets the priority from the value in the
  58:Generated_Source\PSoC5/isr_pwm.c **** *  Design Wide Resources Interrupt Editor, then enables the interrupt to the 
  59:Generated_Source\PSoC5/isr_pwm.c **** *  interrupt controller.
  60:Generated_Source\PSoC5/isr_pwm.c **** *
  61:Generated_Source\PSoC5/isr_pwm.c **** * Parameters:  
  62:Generated_Source\PSoC5/isr_pwm.c **** *   None
  63:Generated_Source\PSoC5/isr_pwm.c **** *
  64:Generated_Source\PSoC5/isr_pwm.c **** * Return:
  65:Generated_Source\PSoC5/isr_pwm.c **** *   None
  66:Generated_Source\PSoC5/isr_pwm.c **** *
  67:Generated_Source\PSoC5/isr_pwm.c **** *******************************************************************************/
  68:Generated_Source\PSoC5/isr_pwm.c **** void isr_pwm_Start(void)
  69:Generated_Source\PSoC5/isr_pwm.c **** {
  70:Generated_Source\PSoC5/isr_pwm.c ****     /* For all we know the interrupt is active. */
  71:Generated_Source\PSoC5/isr_pwm.c ****     isr_pwm_Disable();
  72:Generated_Source\PSoC5/isr_pwm.c **** 
  73:Generated_Source\PSoC5/isr_pwm.c ****     /* Set the ISR to point to the isr_pwm Interrupt. */
  74:Generated_Source\PSoC5/isr_pwm.c ****     isr_pwm_SetVector(&isr_pwm_Interrupt);
  75:Generated_Source\PSoC5/isr_pwm.c **** 
  76:Generated_Source\PSoC5/isr_pwm.c ****     /* Set the priority. */
  77:Generated_Source\PSoC5/isr_pwm.c ****     isr_pwm_SetPriority((uint8)isr_pwm_INTC_PRIOR_NUMBER);
  78:Generated_Source\PSoC5/isr_pwm.c **** 
  79:Generated_Source\PSoC5/isr_pwm.c ****     /* Enable it. */
  80:Generated_Source\PSoC5/isr_pwm.c ****     isr_pwm_Enable();
  81:Generated_Source\PSoC5/isr_pwm.c **** }
  82:Generated_Source\PSoC5/isr_pwm.c **** 
  83:Generated_Source\PSoC5/isr_pwm.c **** 
  84:Generated_Source\PSoC5/isr_pwm.c **** /*******************************************************************************
  85:Generated_Source\PSoC5/isr_pwm.c **** * Function Name: isr_pwm_StartEx
  86:Generated_Source\PSoC5/isr_pwm.c **** ********************************************************************************
  87:Generated_Source\PSoC5/isr_pwm.c **** *
ARM GAS  C:\Users\z004c8dn\AppData\Local\Temp\ccwCGOfd.s 			page 3


  88:Generated_Source\PSoC5/isr_pwm.c **** * Summary:
  89:Generated_Source\PSoC5/isr_pwm.c **** *  Sets up the interrupt and enables it. This function disables the interrupt,
  90:Generated_Source\PSoC5/isr_pwm.c **** *  sets the interrupt vector based on the address passed in, sets the priority 
  91:Generated_Source\PSoC5/isr_pwm.c **** *  from the value in the Design Wide Resources Interrupt Editor, then enables 
  92:Generated_Source\PSoC5/isr_pwm.c **** *  the interrupt to the interrupt controller.
  93:Generated_Source\PSoC5/isr_pwm.c **** *  
  94:Generated_Source\PSoC5/isr_pwm.c **** *  When defining ISR functions, the CY_ISR and CY_ISR_PROTO macros should be 
  95:Generated_Source\PSoC5/isr_pwm.c **** *  used to provide consistent definition across compilers:
  96:Generated_Source\PSoC5/isr_pwm.c **** *  
  97:Generated_Source\PSoC5/isr_pwm.c **** *  Function definition example:
  98:Generated_Source\PSoC5/isr_pwm.c **** *   CY_ISR(MyISR)
  99:Generated_Source\PSoC5/isr_pwm.c **** *   {
 100:Generated_Source\PSoC5/isr_pwm.c **** *   }
 101:Generated_Source\PSoC5/isr_pwm.c **** *   Function prototype example:
 102:Generated_Source\PSoC5/isr_pwm.c **** *   CY_ISR_PROTO(MyISR);
 103:Generated_Source\PSoC5/isr_pwm.c **** *
 104:Generated_Source\PSoC5/isr_pwm.c **** * Parameters:  
 105:Generated_Source\PSoC5/isr_pwm.c **** *   address: Address of the ISR to set in the interrupt vector table.
 106:Generated_Source\PSoC5/isr_pwm.c **** *
 107:Generated_Source\PSoC5/isr_pwm.c **** * Return:
 108:Generated_Source\PSoC5/isr_pwm.c **** *   None
 109:Generated_Source\PSoC5/isr_pwm.c **** *
 110:Generated_Source\PSoC5/isr_pwm.c **** *******************************************************************************/
 111:Generated_Source\PSoC5/isr_pwm.c **** void isr_pwm_StartEx(cyisraddress address)
 112:Generated_Source\PSoC5/isr_pwm.c **** {
 113:Generated_Source\PSoC5/isr_pwm.c ****     /* For all we know the interrupt is active. */
 114:Generated_Source\PSoC5/isr_pwm.c ****     isr_pwm_Disable();
 115:Generated_Source\PSoC5/isr_pwm.c **** 
 116:Generated_Source\PSoC5/isr_pwm.c ****     /* Set the ISR to point to the isr_pwm Interrupt. */
 117:Generated_Source\PSoC5/isr_pwm.c ****     isr_pwm_SetVector(address);
 118:Generated_Source\PSoC5/isr_pwm.c **** 
 119:Generated_Source\PSoC5/isr_pwm.c ****     /* Set the priority. */
 120:Generated_Source\PSoC5/isr_pwm.c ****     isr_pwm_SetPriority((uint8)isr_pwm_INTC_PRIOR_NUMBER);
 121:Generated_Source\PSoC5/isr_pwm.c **** 
 122:Generated_Source\PSoC5/isr_pwm.c ****     /* Enable it. */
 123:Generated_Source\PSoC5/isr_pwm.c ****     isr_pwm_Enable();
 124:Generated_Source\PSoC5/isr_pwm.c **** }
 125:Generated_Source\PSoC5/isr_pwm.c **** 
 126:Generated_Source\PSoC5/isr_pwm.c **** 
 127:Generated_Source\PSoC5/isr_pwm.c **** /*******************************************************************************
 128:Generated_Source\PSoC5/isr_pwm.c **** * Function Name: isr_pwm_Stop
 129:Generated_Source\PSoC5/isr_pwm.c **** ********************************************************************************
 130:Generated_Source\PSoC5/isr_pwm.c **** *
 131:Generated_Source\PSoC5/isr_pwm.c **** * Summary:
 132:Generated_Source\PSoC5/isr_pwm.c **** *   Disables and removes the interrupt.
 133:Generated_Source\PSoC5/isr_pwm.c **** *
 134:Generated_Source\PSoC5/isr_pwm.c **** * Parameters:  
 135:Generated_Source\PSoC5/isr_pwm.c **** *   None
 136:Generated_Source\PSoC5/isr_pwm.c **** *
 137:Generated_Source\PSoC5/isr_pwm.c **** * Return:
 138:Generated_Source\PSoC5/isr_pwm.c **** *   None
 139:Generated_Source\PSoC5/isr_pwm.c **** *
 140:Generated_Source\PSoC5/isr_pwm.c **** *******************************************************************************/
 141:Generated_Source\PSoC5/isr_pwm.c **** void isr_pwm_Stop(void)
 142:Generated_Source\PSoC5/isr_pwm.c **** {
 143:Generated_Source\PSoC5/isr_pwm.c ****     /* Disable this interrupt. */
 144:Generated_Source\PSoC5/isr_pwm.c ****     isr_pwm_Disable();
ARM GAS  C:\Users\z004c8dn\AppData\Local\Temp\ccwCGOfd.s 			page 4


 145:Generated_Source\PSoC5/isr_pwm.c **** 
 146:Generated_Source\PSoC5/isr_pwm.c ****     /* Set the ISR to point to the passive one. */
 147:Generated_Source\PSoC5/isr_pwm.c ****     isr_pwm_SetVector(&IntDefaultHandler);
 148:Generated_Source\PSoC5/isr_pwm.c **** }
 149:Generated_Source\PSoC5/isr_pwm.c **** 
 150:Generated_Source\PSoC5/isr_pwm.c **** 
 151:Generated_Source\PSoC5/isr_pwm.c **** /*******************************************************************************
 152:Generated_Source\PSoC5/isr_pwm.c **** * Function Name: isr_pwm_Interrupt
 153:Generated_Source\PSoC5/isr_pwm.c **** ********************************************************************************
 154:Generated_Source\PSoC5/isr_pwm.c **** *
 155:Generated_Source\PSoC5/isr_pwm.c **** * Summary:
 156:Generated_Source\PSoC5/isr_pwm.c **** *   The default Interrupt Service Routine for isr_pwm.
 157:Generated_Source\PSoC5/isr_pwm.c **** *
 158:Generated_Source\PSoC5/isr_pwm.c **** *   Add custom code between the coments to keep the next version of this file
 159:Generated_Source\PSoC5/isr_pwm.c **** *   from over writting your code.
 160:Generated_Source\PSoC5/isr_pwm.c **** *
 161:Generated_Source\PSoC5/isr_pwm.c **** * Parameters:  
 162:Generated_Source\PSoC5/isr_pwm.c **** *
 163:Generated_Source\PSoC5/isr_pwm.c **** * Return:
 164:Generated_Source\PSoC5/isr_pwm.c **** *   None
 165:Generated_Source\PSoC5/isr_pwm.c **** *
 166:Generated_Source\PSoC5/isr_pwm.c **** *******************************************************************************/
 167:Generated_Source\PSoC5/isr_pwm.c **** CY_ISR(isr_pwm_Interrupt)
 168:Generated_Source\PSoC5/isr_pwm.c **** {
  28              		.loc 1 168 0
  29              		.cfi_startproc
  30              		@ args = 0, pretend = 0, frame = 0
  31              		@ frame_needed = 0, uses_anonymous_args = 0
  32 0000 08B5     		push	{r3, lr}
  33              		.cfi_def_cfa_offset 8
  34              		.cfi_offset 3, -8
  35              		.cfi_offset 14, -4
 169:Generated_Source\PSoC5/isr_pwm.c ****     #ifdef isr_pwm_INTERRUPT_INTERRUPT_CALLBACK
 170:Generated_Source\PSoC5/isr_pwm.c ****         isr_pwm_Interrupt_InterruptCallback();
 171:Generated_Source\PSoC5/isr_pwm.c ****     #endif /* isr_pwm_INTERRUPT_INTERRUPT_CALLBACK */ 
 172:Generated_Source\PSoC5/isr_pwm.c **** 
 173:Generated_Source\PSoC5/isr_pwm.c ****     /*  Place your Interrupt code here. */
 174:Generated_Source\PSoC5/isr_pwm.c ****     /* `#START isr_pwm_Interrupt` */
 175:Generated_Source\PSoC5/isr_pwm.c ****         CYGlobalIntDisable
  36              		.loc 1 175 0
  37              		.syntax unified
  38              	@ 175 "Generated_Source\PSoC5\isr_pwm.c" 1
  39 0002 72B6     		CPSID   i
  40              	@ 0 "" 2
 176:Generated_Source\PSoC5/isr_pwm.c ****         
 177:Generated_Source\PSoC5/isr_pwm.c ****         //UART_PutString("cycle done... starting next");    //debug functions
 178:Generated_Source\PSoC5/isr_pwm.c ****         //UART_PutCRLF(0);                                  //debug functions
 179:Generated_Source\PSoC5/isr_pwm.c ****         
 180:Generated_Source\PSoC5/isr_pwm.c ****         if(gCurrentPosition < gTargetPosition) //increase gradually
  41              		.loc 1 180 0
  42              		.thumb
  43              		.syntax unified
  44 0004 0E4B     		ldr	r3, .L6
  45 0006 1A68     		ldr	r2, [r3]
  46 0008 0E4B     		ldr	r3, .L6+4
  47 000a 1B68     		ldr	r3, [r3]
  48 000c 9A42     		cmp	r2, r3
ARM GAS  C:\Users\z004c8dn\AppData\Local\Temp\ccwCGOfd.s 			page 5


  49 000e 04DA     		bge	.L2
 181:Generated_Source\PSoC5/isr_pwm.c ****         {
 182:Generated_Source\PSoC5/isr_pwm.c ****             gCurrentPosition +=10;
  50              		.loc 1 182 0
  51 0010 0B4A     		ldr	r2, .L6
  52 0012 1368     		ldr	r3, [r2]
  53 0014 0A33     		adds	r3, r3, #10
  54 0016 1360     		str	r3, [r2]
  55 0018 0DE0     		b	.L3
  56              	.L2:
 183:Generated_Source\PSoC5/isr_pwm.c ****         } 
 184:Generated_Source\PSoC5/isr_pwm.c ****         else if(gCurrentPosition> gTargetPosition) //decreasy gradually
  57              		.loc 1 184 0
  58 001a 094B     		ldr	r3, .L6
  59 001c 1A68     		ldr	r2, [r3]
  60 001e 094B     		ldr	r3, .L6+4
  61 0020 1B68     		ldr	r3, [r3]
  62 0022 9A42     		cmp	r2, r3
  63 0024 04DD     		ble	.L4
 185:Generated_Source\PSoC5/isr_pwm.c ****         {
 186:Generated_Source\PSoC5/isr_pwm.c ****             gCurrentPosition -=10;
  64              		.loc 1 186 0
  65 0026 064A     		ldr	r2, .L6
  66 0028 1368     		ldr	r3, [r2]
  67 002a 0A3B     		subs	r3, r3, #10
  68 002c 1360     		str	r3, [r2]
  69 002e 02E0     		b	.L3
  70              	.L4:
 187:Generated_Source\PSoC5/isr_pwm.c ****         }
 188:Generated_Source\PSoC5/isr_pwm.c ****         else
 189:Generated_Source\PSoC5/isr_pwm.c ****         {
 190:Generated_Source\PSoC5/isr_pwm.c ****             gCurrentPosition =gCurrentPosition; //no need for change
  71              		.loc 1 190 0
  72 0030 034B     		ldr	r3, .L6
  73 0032 1A68     		ldr	r2, [r3]
  74 0034 1A60     		str	r2, [r3]
  75              	.L3:
 191:Generated_Source\PSoC5/isr_pwm.c ****         }
 192:Generated_Source\PSoC5/isr_pwm.c ****         
 193:Generated_Source\PSoC5/isr_pwm.c ****         PWM1_ReadStatusRegister();
  76              		.loc 1 193 0
  77 0036 FFF7FEFF 		bl	PWM1_ReadStatusRegister
  78              	.LVL0:
 194:Generated_Source\PSoC5/isr_pwm.c ****         CYGlobalIntEnable
  79              		.loc 1 194 0
  80              		.syntax unified
  81              	@ 194 "Generated_Source\PSoC5\isr_pwm.c" 1
  82 003a 62B6     		CPSIE   i
  83              	@ 0 "" 2
  84              		.thumb
  85              		.syntax unified
  86 003c 08BD     		pop	{r3, pc}
  87              	.L7:
  88 003e 00BF     		.align	2
  89              	.L6:
  90 0040 00000000 		.word	gCurrentPosition
  91 0044 00000000 		.word	gTargetPosition
ARM GAS  C:\Users\z004c8dn\AppData\Local\Temp\ccwCGOfd.s 			page 6


  92              		.cfi_endproc
  93              	.LFE67:
  94              		.size	isr_pwm_Interrupt, .-isr_pwm_Interrupt
  95              		.section	.text.isr_pwm_SetVector,"ax",%progbits
  96              		.align	2
  97              		.global	isr_pwm_SetVector
  98              		.thumb
  99              		.thumb_func
 100              		.type	isr_pwm_SetVector, %function
 101              	isr_pwm_SetVector:
 102              	.LFB68:
 195:Generated_Source\PSoC5/isr_pwm.c ****     /* `#END` */
 196:Generated_Source\PSoC5/isr_pwm.c **** }
 197:Generated_Source\PSoC5/isr_pwm.c **** 
 198:Generated_Source\PSoC5/isr_pwm.c **** 
 199:Generated_Source\PSoC5/isr_pwm.c **** /*******************************************************************************
 200:Generated_Source\PSoC5/isr_pwm.c **** * Function Name: isr_pwm_SetVector
 201:Generated_Source\PSoC5/isr_pwm.c **** ********************************************************************************
 202:Generated_Source\PSoC5/isr_pwm.c **** *
 203:Generated_Source\PSoC5/isr_pwm.c **** * Summary:
 204:Generated_Source\PSoC5/isr_pwm.c **** *   Change the ISR vector for the Interrupt. Note calling isr_pwm_Start
 205:Generated_Source\PSoC5/isr_pwm.c **** *   will override any effect this method would have had. To set the vector 
 206:Generated_Source\PSoC5/isr_pwm.c **** *   before the component has been started use isr_pwm_StartEx instead.
 207:Generated_Source\PSoC5/isr_pwm.c **** * 
 208:Generated_Source\PSoC5/isr_pwm.c **** *   When defining ISR functions, the CY_ISR and CY_ISR_PROTO macros should be 
 209:Generated_Source\PSoC5/isr_pwm.c **** *   used to provide consistent definition across compilers:
 210:Generated_Source\PSoC5/isr_pwm.c **** *
 211:Generated_Source\PSoC5/isr_pwm.c **** *   Function definition example:
 212:Generated_Source\PSoC5/isr_pwm.c **** *   CY_ISR(MyISR)
 213:Generated_Source\PSoC5/isr_pwm.c **** *   {
 214:Generated_Source\PSoC5/isr_pwm.c **** *   }
 215:Generated_Source\PSoC5/isr_pwm.c **** *
 216:Generated_Source\PSoC5/isr_pwm.c **** *   Function prototype example:
 217:Generated_Source\PSoC5/isr_pwm.c **** *     CY_ISR_PROTO(MyISR);
 218:Generated_Source\PSoC5/isr_pwm.c **** *
 219:Generated_Source\PSoC5/isr_pwm.c **** * Parameters:
 220:Generated_Source\PSoC5/isr_pwm.c **** *   address: Address of the ISR to set in the interrupt vector table.
 221:Generated_Source\PSoC5/isr_pwm.c **** *
 222:Generated_Source\PSoC5/isr_pwm.c **** * Return:
 223:Generated_Source\PSoC5/isr_pwm.c **** *   None
 224:Generated_Source\PSoC5/isr_pwm.c **** *
 225:Generated_Source\PSoC5/isr_pwm.c **** *******************************************************************************/
 226:Generated_Source\PSoC5/isr_pwm.c **** void isr_pwm_SetVector(cyisraddress address)
 227:Generated_Source\PSoC5/isr_pwm.c **** {
 103              		.loc 1 227 0
 104              		.cfi_startproc
 105              		@ args = 0, pretend = 0, frame = 0
 106              		@ frame_needed = 0, uses_anonymous_args = 0
 107              		@ link register save eliminated.
 108              	.LVL1:
 228:Generated_Source\PSoC5/isr_pwm.c ****     cyisraddress * ramVectorTable;
 229:Generated_Source\PSoC5/isr_pwm.c **** 
 230:Generated_Source\PSoC5/isr_pwm.c ****     ramVectorTable = (cyisraddress *) *CYINT_VECT_TABLE;
 109              		.loc 1 230 0
 110 0000 014B     		ldr	r3, .L9
 111 0002 1B68     		ldr	r3, [r3]
 112              	.LVL2:
ARM GAS  C:\Users\z004c8dn\AppData\Local\Temp\ccwCGOfd.s 			page 7


 231:Generated_Source\PSoC5/isr_pwm.c **** 
 232:Generated_Source\PSoC5/isr_pwm.c ****     ramVectorTable[CYINT_IRQ_BASE + (uint32)isr_pwm__INTC_NUMBER] = address;
 113              		.loc 1 232 0
 114 0004 1864     		str	r0, [r3, #64]
 115 0006 7047     		bx	lr
 116              	.L10:
 117              		.align	2
 118              	.L9:
 119 0008 08ED00E0 		.word	-536810232
 120              		.cfi_endproc
 121              	.LFE68:
 122              		.size	isr_pwm_SetVector, .-isr_pwm_SetVector
 123              		.section	.text.isr_pwm_GetVector,"ax",%progbits
 124              		.align	2
 125              		.global	isr_pwm_GetVector
 126              		.thumb
 127              		.thumb_func
 128              		.type	isr_pwm_GetVector, %function
 129              	isr_pwm_GetVector:
 130              	.LFB69:
 233:Generated_Source\PSoC5/isr_pwm.c **** }
 234:Generated_Source\PSoC5/isr_pwm.c **** 
 235:Generated_Source\PSoC5/isr_pwm.c **** 
 236:Generated_Source\PSoC5/isr_pwm.c **** /*******************************************************************************
 237:Generated_Source\PSoC5/isr_pwm.c **** * Function Name: isr_pwm_GetVector
 238:Generated_Source\PSoC5/isr_pwm.c **** ********************************************************************************
 239:Generated_Source\PSoC5/isr_pwm.c **** *
 240:Generated_Source\PSoC5/isr_pwm.c **** * Summary:
 241:Generated_Source\PSoC5/isr_pwm.c **** *   Gets the "address" of the current ISR vector for the Interrupt.
 242:Generated_Source\PSoC5/isr_pwm.c **** *
 243:Generated_Source\PSoC5/isr_pwm.c **** * Parameters:
 244:Generated_Source\PSoC5/isr_pwm.c **** *   None
 245:Generated_Source\PSoC5/isr_pwm.c **** *
 246:Generated_Source\PSoC5/isr_pwm.c **** * Return:
 247:Generated_Source\PSoC5/isr_pwm.c **** *   Address of the ISR in the interrupt vector table.
 248:Generated_Source\PSoC5/isr_pwm.c **** *
 249:Generated_Source\PSoC5/isr_pwm.c **** *******************************************************************************/
 250:Generated_Source\PSoC5/isr_pwm.c **** cyisraddress isr_pwm_GetVector(void)
 251:Generated_Source\PSoC5/isr_pwm.c **** {
 131              		.loc 1 251 0
 132              		.cfi_startproc
 133              		@ args = 0, pretend = 0, frame = 0
 134              		@ frame_needed = 0, uses_anonymous_args = 0
 135              		@ link register save eliminated.
 252:Generated_Source\PSoC5/isr_pwm.c ****     cyisraddress * ramVectorTable;
 253:Generated_Source\PSoC5/isr_pwm.c **** 
 254:Generated_Source\PSoC5/isr_pwm.c ****     ramVectorTable = (cyisraddress *) *CYINT_VECT_TABLE;
 136              		.loc 1 254 0
 137 0000 014B     		ldr	r3, .L12
 138 0002 1B68     		ldr	r3, [r3]
 139              	.LVL3:
 255:Generated_Source\PSoC5/isr_pwm.c **** 
 256:Generated_Source\PSoC5/isr_pwm.c ****     return ramVectorTable[CYINT_IRQ_BASE + (uint32)isr_pwm__INTC_NUMBER];
 257:Generated_Source\PSoC5/isr_pwm.c **** }
 140              		.loc 1 257 0
 141 0004 186C     		ldr	r0, [r3, #64]
 142 0006 7047     		bx	lr
ARM GAS  C:\Users\z004c8dn\AppData\Local\Temp\ccwCGOfd.s 			page 8


 143              	.L13:
 144              		.align	2
 145              	.L12:
 146 0008 08ED00E0 		.word	-536810232
 147              		.cfi_endproc
 148              	.LFE69:
 149              		.size	isr_pwm_GetVector, .-isr_pwm_GetVector
 150              		.section	.text.isr_pwm_SetPriority,"ax",%progbits
 151              		.align	2
 152              		.global	isr_pwm_SetPriority
 153              		.thumb
 154              		.thumb_func
 155              		.type	isr_pwm_SetPriority, %function
 156              	isr_pwm_SetPriority:
 157              	.LFB70:
 258:Generated_Source\PSoC5/isr_pwm.c **** 
 259:Generated_Source\PSoC5/isr_pwm.c **** 
 260:Generated_Source\PSoC5/isr_pwm.c **** /*******************************************************************************
 261:Generated_Source\PSoC5/isr_pwm.c **** * Function Name: isr_pwm_SetPriority
 262:Generated_Source\PSoC5/isr_pwm.c **** ********************************************************************************
 263:Generated_Source\PSoC5/isr_pwm.c **** *
 264:Generated_Source\PSoC5/isr_pwm.c **** * Summary:
 265:Generated_Source\PSoC5/isr_pwm.c **** *   Sets the Priority of the Interrupt. 
 266:Generated_Source\PSoC5/isr_pwm.c **** *
 267:Generated_Source\PSoC5/isr_pwm.c **** *   Note calling isr_pwm_Start or isr_pwm_StartEx will 
 268:Generated_Source\PSoC5/isr_pwm.c **** *   override any effect this API would have had. This API should only be called
 269:Generated_Source\PSoC5/isr_pwm.c **** *   after isr_pwm_Start or isr_pwm_StartEx has been called. 
 270:Generated_Source\PSoC5/isr_pwm.c **** *   To set the initial priority for the component, use the Design-Wide Resources
 271:Generated_Source\PSoC5/isr_pwm.c **** *   Interrupt Editor.
 272:Generated_Source\PSoC5/isr_pwm.c **** *
 273:Generated_Source\PSoC5/isr_pwm.c **** *   Note This API has no effect on Non-maskable interrupt NMI).
 274:Generated_Source\PSoC5/isr_pwm.c **** *
 275:Generated_Source\PSoC5/isr_pwm.c **** * Parameters:
 276:Generated_Source\PSoC5/isr_pwm.c **** *   priority: Priority of the interrupt, 0 being the highest priority
 277:Generated_Source\PSoC5/isr_pwm.c **** *             PSoC 3 and PSoC 5LP: Priority is from 0 to 7.
 278:Generated_Source\PSoC5/isr_pwm.c **** *             PSoC 4: Priority is from 0 to 3.
 279:Generated_Source\PSoC5/isr_pwm.c **** *
 280:Generated_Source\PSoC5/isr_pwm.c **** * Return:
 281:Generated_Source\PSoC5/isr_pwm.c **** *   None
 282:Generated_Source\PSoC5/isr_pwm.c **** *
 283:Generated_Source\PSoC5/isr_pwm.c **** *******************************************************************************/
 284:Generated_Source\PSoC5/isr_pwm.c **** void isr_pwm_SetPriority(uint8 priority)
 285:Generated_Source\PSoC5/isr_pwm.c **** {
 158              		.loc 1 285 0
 159              		.cfi_startproc
 160              		@ args = 0, pretend = 0, frame = 0
 161              		@ frame_needed = 0, uses_anonymous_args = 0
 162              		@ link register save eliminated.
 163              	.LVL4:
 286:Generated_Source\PSoC5/isr_pwm.c ****     *isr_pwm_INTC_PRIOR = priority << 5;
 164              		.loc 1 286 0
 165 0000 4001     		lsls	r0, r0, #5
 166              	.LVL5:
 167 0002 C0B2     		uxtb	r0, r0
 168 0004 014B     		ldr	r3, .L15
 169 0006 1870     		strb	r0, [r3]
 170 0008 7047     		bx	lr
ARM GAS  C:\Users\z004c8dn\AppData\Local\Temp\ccwCGOfd.s 			page 9


 171              	.L16:
 172 000a 00BF     		.align	2
 173              	.L15:
 174 000c 00E400E0 		.word	-536812544
 175              		.cfi_endproc
 176              	.LFE70:
 177              		.size	isr_pwm_SetPriority, .-isr_pwm_SetPriority
 178              		.section	.text.isr_pwm_GetPriority,"ax",%progbits
 179              		.align	2
 180              		.global	isr_pwm_GetPriority
 181              		.thumb
 182              		.thumb_func
 183              		.type	isr_pwm_GetPriority, %function
 184              	isr_pwm_GetPriority:
 185              	.LFB71:
 287:Generated_Source\PSoC5/isr_pwm.c **** }
 288:Generated_Source\PSoC5/isr_pwm.c **** 
 289:Generated_Source\PSoC5/isr_pwm.c **** 
 290:Generated_Source\PSoC5/isr_pwm.c **** /*******************************************************************************
 291:Generated_Source\PSoC5/isr_pwm.c **** * Function Name: isr_pwm_GetPriority
 292:Generated_Source\PSoC5/isr_pwm.c **** ********************************************************************************
 293:Generated_Source\PSoC5/isr_pwm.c **** *
 294:Generated_Source\PSoC5/isr_pwm.c **** * Summary:
 295:Generated_Source\PSoC5/isr_pwm.c **** *   Gets the Priority of the Interrupt.
 296:Generated_Source\PSoC5/isr_pwm.c **** *
 297:Generated_Source\PSoC5/isr_pwm.c **** * Parameters:
 298:Generated_Source\PSoC5/isr_pwm.c **** *   None
 299:Generated_Source\PSoC5/isr_pwm.c **** *
 300:Generated_Source\PSoC5/isr_pwm.c **** * Return:
 301:Generated_Source\PSoC5/isr_pwm.c **** *   Priority of the interrupt, 0 being the highest priority
 302:Generated_Source\PSoC5/isr_pwm.c **** *    PSoC 3 and PSoC 5LP: Priority is from 0 to 7.
 303:Generated_Source\PSoC5/isr_pwm.c **** *    PSoC 4: Priority is from 0 to 3.
 304:Generated_Source\PSoC5/isr_pwm.c **** *
 305:Generated_Source\PSoC5/isr_pwm.c **** *******************************************************************************/
 306:Generated_Source\PSoC5/isr_pwm.c **** uint8 isr_pwm_GetPriority(void)
 307:Generated_Source\PSoC5/isr_pwm.c **** {
 186              		.loc 1 307 0
 187              		.cfi_startproc
 188              		@ args = 0, pretend = 0, frame = 0
 189              		@ frame_needed = 0, uses_anonymous_args = 0
 190              		@ link register save eliminated.
 308:Generated_Source\PSoC5/isr_pwm.c ****     uint8 priority;
 309:Generated_Source\PSoC5/isr_pwm.c **** 
 310:Generated_Source\PSoC5/isr_pwm.c **** 
 311:Generated_Source\PSoC5/isr_pwm.c ****     priority = *isr_pwm_INTC_PRIOR >> 5;
 191              		.loc 1 311 0
 192 0000 014B     		ldr	r3, .L18
 193 0002 1878     		ldrb	r0, [r3]	@ zero_extendqisi2
 194              	.LVL6:
 312:Generated_Source\PSoC5/isr_pwm.c **** 
 313:Generated_Source\PSoC5/isr_pwm.c ****     return priority;
 314:Generated_Source\PSoC5/isr_pwm.c **** }
 195              		.loc 1 314 0
 196 0004 4009     		lsrs	r0, r0, #5
 197              	.LVL7:
 198 0006 7047     		bx	lr
 199              	.L19:
ARM GAS  C:\Users\z004c8dn\AppData\Local\Temp\ccwCGOfd.s 			page 10


 200              		.align	2
 201              	.L18:
 202 0008 00E400E0 		.word	-536812544
 203              		.cfi_endproc
 204              	.LFE71:
 205              		.size	isr_pwm_GetPriority, .-isr_pwm_GetPriority
 206              		.section	.text.isr_pwm_Enable,"ax",%progbits
 207              		.align	2
 208              		.global	isr_pwm_Enable
 209              		.thumb
 210              		.thumb_func
 211              		.type	isr_pwm_Enable, %function
 212              	isr_pwm_Enable:
 213              	.LFB72:
 315:Generated_Source\PSoC5/isr_pwm.c **** 
 316:Generated_Source\PSoC5/isr_pwm.c **** 
 317:Generated_Source\PSoC5/isr_pwm.c **** /*******************************************************************************
 318:Generated_Source\PSoC5/isr_pwm.c **** * Function Name: isr_pwm_Enable
 319:Generated_Source\PSoC5/isr_pwm.c **** ********************************************************************************
 320:Generated_Source\PSoC5/isr_pwm.c **** *
 321:Generated_Source\PSoC5/isr_pwm.c **** * Summary:
 322:Generated_Source\PSoC5/isr_pwm.c **** *   Enables the interrupt to the interrupt controller. Do not call this function
 323:Generated_Source\PSoC5/isr_pwm.c **** *   unless ISR_Start() has been called or the functionality of the ISR_Start() 
 324:Generated_Source\PSoC5/isr_pwm.c **** *   function, which sets the vector and the priority, has been called.
 325:Generated_Source\PSoC5/isr_pwm.c **** *
 326:Generated_Source\PSoC5/isr_pwm.c **** * Parameters:
 327:Generated_Source\PSoC5/isr_pwm.c **** *   None
 328:Generated_Source\PSoC5/isr_pwm.c **** *
 329:Generated_Source\PSoC5/isr_pwm.c **** * Return:
 330:Generated_Source\PSoC5/isr_pwm.c **** *   None
 331:Generated_Source\PSoC5/isr_pwm.c **** *
 332:Generated_Source\PSoC5/isr_pwm.c **** *******************************************************************************/
 333:Generated_Source\PSoC5/isr_pwm.c **** void isr_pwm_Enable(void)
 334:Generated_Source\PSoC5/isr_pwm.c **** {
 214              		.loc 1 334 0
 215              		.cfi_startproc
 216              		@ args = 0, pretend = 0, frame = 0
 217              		@ frame_needed = 0, uses_anonymous_args = 0
 218              		@ link register save eliminated.
 335:Generated_Source\PSoC5/isr_pwm.c ****     /* Enable the general interrupt. */
 336:Generated_Source\PSoC5/isr_pwm.c ****     *isr_pwm_INTC_SET_EN = isr_pwm__INTC_MASK;
 219              		.loc 1 336 0
 220 0000 0122     		movs	r2, #1
 221 0002 014B     		ldr	r3, .L21
 222 0004 1A60     		str	r2, [r3]
 223 0006 7047     		bx	lr
 224              	.L22:
 225              		.align	2
 226              	.L21:
 227 0008 00E100E0 		.word	-536813312
 228              		.cfi_endproc
 229              	.LFE72:
 230              		.size	isr_pwm_Enable, .-isr_pwm_Enable
 231              		.section	.text.isr_pwm_GetState,"ax",%progbits
 232              		.align	2
 233              		.global	isr_pwm_GetState
 234              		.thumb
ARM GAS  C:\Users\z004c8dn\AppData\Local\Temp\ccwCGOfd.s 			page 11


 235              		.thumb_func
 236              		.type	isr_pwm_GetState, %function
 237              	isr_pwm_GetState:
 238              	.LFB73:
 337:Generated_Source\PSoC5/isr_pwm.c **** }
 338:Generated_Source\PSoC5/isr_pwm.c **** 
 339:Generated_Source\PSoC5/isr_pwm.c **** 
 340:Generated_Source\PSoC5/isr_pwm.c **** /*******************************************************************************
 341:Generated_Source\PSoC5/isr_pwm.c **** * Function Name: isr_pwm_GetState
 342:Generated_Source\PSoC5/isr_pwm.c **** ********************************************************************************
 343:Generated_Source\PSoC5/isr_pwm.c **** *
 344:Generated_Source\PSoC5/isr_pwm.c **** * Summary:
 345:Generated_Source\PSoC5/isr_pwm.c **** *   Gets the state (enabled, disabled) of the Interrupt.
 346:Generated_Source\PSoC5/isr_pwm.c **** *
 347:Generated_Source\PSoC5/isr_pwm.c **** * Parameters:
 348:Generated_Source\PSoC5/isr_pwm.c **** *   None
 349:Generated_Source\PSoC5/isr_pwm.c **** *
 350:Generated_Source\PSoC5/isr_pwm.c **** * Return:
 351:Generated_Source\PSoC5/isr_pwm.c **** *   1 if enabled, 0 if disabled.
 352:Generated_Source\PSoC5/isr_pwm.c **** *
 353:Generated_Source\PSoC5/isr_pwm.c **** *******************************************************************************/
 354:Generated_Source\PSoC5/isr_pwm.c **** uint8 isr_pwm_GetState(void)
 355:Generated_Source\PSoC5/isr_pwm.c **** {
 239              		.loc 1 355 0
 240              		.cfi_startproc
 241              		@ args = 0, pretend = 0, frame = 0
 242              		@ frame_needed = 0, uses_anonymous_args = 0
 243              		@ link register save eliminated.
 356:Generated_Source\PSoC5/isr_pwm.c ****     /* Get the state of the general interrupt. */
 357:Generated_Source\PSoC5/isr_pwm.c ****     return ((*isr_pwm_INTC_SET_EN & (uint32)isr_pwm__INTC_MASK) != 0u) ? 1u:0u;
 244              		.loc 1 357 0
 245 0000 024B     		ldr	r3, .L24
 246 0002 1868     		ldr	r0, [r3]
 358:Generated_Source\PSoC5/isr_pwm.c **** }
 247              		.loc 1 358 0
 248 0004 00F00100 		and	r0, r0, #1
 249 0008 7047     		bx	lr
 250              	.L25:
 251 000a 00BF     		.align	2
 252              	.L24:
 253 000c 00E100E0 		.word	-536813312
 254              		.cfi_endproc
 255              	.LFE73:
 256              		.size	isr_pwm_GetState, .-isr_pwm_GetState
 257              		.section	.text.isr_pwm_Disable,"ax",%progbits
 258              		.align	2
 259              		.global	isr_pwm_Disable
 260              		.thumb
 261              		.thumb_func
 262              		.type	isr_pwm_Disable, %function
 263              	isr_pwm_Disable:
 264              	.LFB74:
 359:Generated_Source\PSoC5/isr_pwm.c **** 
 360:Generated_Source\PSoC5/isr_pwm.c **** 
 361:Generated_Source\PSoC5/isr_pwm.c **** /*******************************************************************************
 362:Generated_Source\PSoC5/isr_pwm.c **** * Function Name: isr_pwm_Disable
 363:Generated_Source\PSoC5/isr_pwm.c **** ********************************************************************************
ARM GAS  C:\Users\z004c8dn\AppData\Local\Temp\ccwCGOfd.s 			page 12


 364:Generated_Source\PSoC5/isr_pwm.c **** *
 365:Generated_Source\PSoC5/isr_pwm.c **** * Summary:
 366:Generated_Source\PSoC5/isr_pwm.c **** *   Disables the Interrupt in the interrupt controller.
 367:Generated_Source\PSoC5/isr_pwm.c **** *
 368:Generated_Source\PSoC5/isr_pwm.c **** * Parameters:
 369:Generated_Source\PSoC5/isr_pwm.c **** *   None
 370:Generated_Source\PSoC5/isr_pwm.c **** *
 371:Generated_Source\PSoC5/isr_pwm.c **** * Return:
 372:Generated_Source\PSoC5/isr_pwm.c **** *   None
 373:Generated_Source\PSoC5/isr_pwm.c **** *
 374:Generated_Source\PSoC5/isr_pwm.c **** *******************************************************************************/
 375:Generated_Source\PSoC5/isr_pwm.c **** void isr_pwm_Disable(void)
 376:Generated_Source\PSoC5/isr_pwm.c **** {
 265              		.loc 1 376 0
 266              		.cfi_startproc
 267              		@ args = 0, pretend = 0, frame = 0
 268              		@ frame_needed = 0, uses_anonymous_args = 0
 269              		@ link register save eliminated.
 377:Generated_Source\PSoC5/isr_pwm.c ****     /* Disable the general interrupt. */
 378:Generated_Source\PSoC5/isr_pwm.c ****     *isr_pwm_INTC_CLR_EN = isr_pwm__INTC_MASK;
 270              		.loc 1 378 0
 271 0000 0122     		movs	r2, #1
 272 0002 014B     		ldr	r3, .L27
 273 0004 1A60     		str	r2, [r3]
 274 0006 7047     		bx	lr
 275              	.L28:
 276              		.align	2
 277              	.L27:
 278 0008 80E100E0 		.word	-536813184
 279              		.cfi_endproc
 280              	.LFE74:
 281              		.size	isr_pwm_Disable, .-isr_pwm_Disable
 282              		.section	.text.isr_pwm_Start,"ax",%progbits
 283              		.align	2
 284              		.global	isr_pwm_Start
 285              		.thumb
 286              		.thumb_func
 287              		.type	isr_pwm_Start, %function
 288              	isr_pwm_Start:
 289              	.LFB64:
  69:Generated_Source\PSoC5/isr_pwm.c ****     /* For all we know the interrupt is active. */
 290              		.loc 1 69 0
 291              		.cfi_startproc
 292              		@ args = 0, pretend = 0, frame = 0
 293              		@ frame_needed = 0, uses_anonymous_args = 0
 294 0000 08B5     		push	{r3, lr}
 295              		.cfi_def_cfa_offset 8
 296              		.cfi_offset 3, -8
 297              		.cfi_offset 14, -4
  71:Generated_Source\PSoC5/isr_pwm.c **** 
 298              		.loc 1 71 0
 299 0002 FFF7FEFF 		bl	isr_pwm_Disable
 300              	.LVL8:
  74:Generated_Source\PSoC5/isr_pwm.c **** 
 301              		.loc 1 74 0
 302 0006 0448     		ldr	r0, .L31
 303 0008 FFF7FEFF 		bl	isr_pwm_SetVector
ARM GAS  C:\Users\z004c8dn\AppData\Local\Temp\ccwCGOfd.s 			page 13


 304              	.LVL9:
  77:Generated_Source\PSoC5/isr_pwm.c **** 
 305              		.loc 1 77 0
 306 000c 0720     		movs	r0, #7
 307 000e FFF7FEFF 		bl	isr_pwm_SetPriority
 308              	.LVL10:
  80:Generated_Source\PSoC5/isr_pwm.c **** }
 309              		.loc 1 80 0
 310 0012 FFF7FEFF 		bl	isr_pwm_Enable
 311              	.LVL11:
 312 0016 08BD     		pop	{r3, pc}
 313              	.L32:
 314              		.align	2
 315              	.L31:
 316 0018 00000000 		.word	isr_pwm_Interrupt
 317              		.cfi_endproc
 318              	.LFE64:
 319              		.size	isr_pwm_Start, .-isr_pwm_Start
 320              		.section	.text.isr_pwm_StartEx,"ax",%progbits
 321              		.align	2
 322              		.global	isr_pwm_StartEx
 323              		.thumb
 324              		.thumb_func
 325              		.type	isr_pwm_StartEx, %function
 326              	isr_pwm_StartEx:
 327              	.LFB65:
 112:Generated_Source\PSoC5/isr_pwm.c ****     /* For all we know the interrupt is active. */
 328              		.loc 1 112 0
 329              		.cfi_startproc
 330              		@ args = 0, pretend = 0, frame = 0
 331              		@ frame_needed = 0, uses_anonymous_args = 0
 332              	.LVL12:
 333 0000 10B5     		push	{r4, lr}
 334              		.cfi_def_cfa_offset 8
 335              		.cfi_offset 4, -8
 336              		.cfi_offset 14, -4
 337 0002 0446     		mov	r4, r0
 114:Generated_Source\PSoC5/isr_pwm.c **** 
 338              		.loc 1 114 0
 339 0004 FFF7FEFF 		bl	isr_pwm_Disable
 340              	.LVL13:
 117:Generated_Source\PSoC5/isr_pwm.c **** 
 341              		.loc 1 117 0
 342 0008 2046     		mov	r0, r4
 343 000a FFF7FEFF 		bl	isr_pwm_SetVector
 344              	.LVL14:
 120:Generated_Source\PSoC5/isr_pwm.c **** 
 345              		.loc 1 120 0
 346 000e 0720     		movs	r0, #7
 347 0010 FFF7FEFF 		bl	isr_pwm_SetPriority
 348              	.LVL15:
 123:Generated_Source\PSoC5/isr_pwm.c **** }
 349              		.loc 1 123 0
 350 0014 FFF7FEFF 		bl	isr_pwm_Enable
 351              	.LVL16:
 352 0018 10BD     		pop	{r4, pc}
 353              		.cfi_endproc
ARM GAS  C:\Users\z004c8dn\AppData\Local\Temp\ccwCGOfd.s 			page 14


 354              	.LFE65:
 355              		.size	isr_pwm_StartEx, .-isr_pwm_StartEx
 356 001a 00BF     		.section	.text.isr_pwm_Stop,"ax",%progbits
 357              		.align	2
 358              		.global	isr_pwm_Stop
 359              		.thumb
 360              		.thumb_func
 361              		.type	isr_pwm_Stop, %function
 362              	isr_pwm_Stop:
 363              	.LFB66:
 142:Generated_Source\PSoC5/isr_pwm.c ****     /* Disable this interrupt. */
 364              		.loc 1 142 0
 365              		.cfi_startproc
 366              		@ args = 0, pretend = 0, frame = 0
 367              		@ frame_needed = 0, uses_anonymous_args = 0
 368 0000 08B5     		push	{r3, lr}
 369              		.cfi_def_cfa_offset 8
 370              		.cfi_offset 3, -8
 371              		.cfi_offset 14, -4
 144:Generated_Source\PSoC5/isr_pwm.c **** 
 372              		.loc 1 144 0
 373 0002 FFF7FEFF 		bl	isr_pwm_Disable
 374              	.LVL17:
 147:Generated_Source\PSoC5/isr_pwm.c **** }
 375              		.loc 1 147 0
 376 0006 0248     		ldr	r0, .L37
 377 0008 FFF7FEFF 		bl	isr_pwm_SetVector
 378              	.LVL18:
 379 000c 08BD     		pop	{r3, pc}
 380              	.L38:
 381 000e 00BF     		.align	2
 382              	.L37:
 383 0010 00000000 		.word	IntDefaultHandler
 384              		.cfi_endproc
 385              	.LFE66:
 386              		.size	isr_pwm_Stop, .-isr_pwm_Stop
 387              		.section	.text.isr_pwm_SetPending,"ax",%progbits
 388              		.align	2
 389              		.global	isr_pwm_SetPending
 390              		.thumb
 391              		.thumb_func
 392              		.type	isr_pwm_SetPending, %function
 393              	isr_pwm_SetPending:
 394              	.LFB75:
 379:Generated_Source\PSoC5/isr_pwm.c **** }
 380:Generated_Source\PSoC5/isr_pwm.c **** 
 381:Generated_Source\PSoC5/isr_pwm.c **** 
 382:Generated_Source\PSoC5/isr_pwm.c **** /*******************************************************************************
 383:Generated_Source\PSoC5/isr_pwm.c **** * Function Name: isr_pwm_SetPending
 384:Generated_Source\PSoC5/isr_pwm.c **** ********************************************************************************
 385:Generated_Source\PSoC5/isr_pwm.c **** *
 386:Generated_Source\PSoC5/isr_pwm.c **** * Summary:
 387:Generated_Source\PSoC5/isr_pwm.c **** *   Causes the Interrupt to enter the pending state, a software method of
 388:Generated_Source\PSoC5/isr_pwm.c **** *   generating the interrupt.
 389:Generated_Source\PSoC5/isr_pwm.c **** *
 390:Generated_Source\PSoC5/isr_pwm.c **** * Parameters:
 391:Generated_Source\PSoC5/isr_pwm.c **** *   None
ARM GAS  C:\Users\z004c8dn\AppData\Local\Temp\ccwCGOfd.s 			page 15


 392:Generated_Source\PSoC5/isr_pwm.c **** *
 393:Generated_Source\PSoC5/isr_pwm.c **** * Return:
 394:Generated_Source\PSoC5/isr_pwm.c **** *   None
 395:Generated_Source\PSoC5/isr_pwm.c **** *
 396:Generated_Source\PSoC5/isr_pwm.c **** * Side Effects:
 397:Generated_Source\PSoC5/isr_pwm.c **** *   If interrupts are enabled and the interrupt is set up properly, the ISR is
 398:Generated_Source\PSoC5/isr_pwm.c **** *   entered (depending on the priority of this interrupt and other pending 
 399:Generated_Source\PSoC5/isr_pwm.c **** *   interrupts).
 400:Generated_Source\PSoC5/isr_pwm.c **** *
 401:Generated_Source\PSoC5/isr_pwm.c **** *******************************************************************************/
 402:Generated_Source\PSoC5/isr_pwm.c **** void isr_pwm_SetPending(void)
 403:Generated_Source\PSoC5/isr_pwm.c **** {
 395              		.loc 1 403 0
 396              		.cfi_startproc
 397              		@ args = 0, pretend = 0, frame = 0
 398              		@ frame_needed = 0, uses_anonymous_args = 0
 399              		@ link register save eliminated.
 404:Generated_Source\PSoC5/isr_pwm.c ****     *isr_pwm_INTC_SET_PD = isr_pwm__INTC_MASK;
 400              		.loc 1 404 0
 401 0000 0122     		movs	r2, #1
 402 0002 014B     		ldr	r3, .L40
 403 0004 1A60     		str	r2, [r3]
 404 0006 7047     		bx	lr
 405              	.L41:
 406              		.align	2
 407              	.L40:
 408 0008 00E200E0 		.word	-536813056
 409              		.cfi_endproc
 410              	.LFE75:
 411              		.size	isr_pwm_SetPending, .-isr_pwm_SetPending
 412              		.section	.text.isr_pwm_ClearPending,"ax",%progbits
 413              		.align	2
 414              		.global	isr_pwm_ClearPending
 415              		.thumb
 416              		.thumb_func
 417              		.type	isr_pwm_ClearPending, %function
 418              	isr_pwm_ClearPending:
 419              	.LFB76:
 405:Generated_Source\PSoC5/isr_pwm.c **** }
 406:Generated_Source\PSoC5/isr_pwm.c **** 
 407:Generated_Source\PSoC5/isr_pwm.c **** 
 408:Generated_Source\PSoC5/isr_pwm.c **** /*******************************************************************************
 409:Generated_Source\PSoC5/isr_pwm.c **** * Function Name: isr_pwm_ClearPending
 410:Generated_Source\PSoC5/isr_pwm.c **** ********************************************************************************
 411:Generated_Source\PSoC5/isr_pwm.c **** *
 412:Generated_Source\PSoC5/isr_pwm.c **** * Summary:
 413:Generated_Source\PSoC5/isr_pwm.c **** *   Clears a pending interrupt in the interrupt controller.
 414:Generated_Source\PSoC5/isr_pwm.c **** *
 415:Generated_Source\PSoC5/isr_pwm.c **** *   Note Some interrupt sources are clear-on-read and require the block 
 416:Generated_Source\PSoC5/isr_pwm.c **** *   interrupt/status register to be read/cleared with the appropriate block API 
 417:Generated_Source\PSoC5/isr_pwm.c **** *   (GPIO, UART, and so on). Otherwise the ISR will continue to remain in 
 418:Generated_Source\PSoC5/isr_pwm.c **** *   pending state even though the interrupt itself is cleared using this API.
 419:Generated_Source\PSoC5/isr_pwm.c **** *
 420:Generated_Source\PSoC5/isr_pwm.c **** * Parameters:
 421:Generated_Source\PSoC5/isr_pwm.c **** *   None
 422:Generated_Source\PSoC5/isr_pwm.c **** *
 423:Generated_Source\PSoC5/isr_pwm.c **** * Return:
ARM GAS  C:\Users\z004c8dn\AppData\Local\Temp\ccwCGOfd.s 			page 16


 424:Generated_Source\PSoC5/isr_pwm.c **** *   None
 425:Generated_Source\PSoC5/isr_pwm.c **** *
 426:Generated_Source\PSoC5/isr_pwm.c **** *******************************************************************************/
 427:Generated_Source\PSoC5/isr_pwm.c **** void isr_pwm_ClearPending(void)
 428:Generated_Source\PSoC5/isr_pwm.c **** {
 420              		.loc 1 428 0
 421              		.cfi_startproc
 422              		@ args = 0, pretend = 0, frame = 0
 423              		@ frame_needed = 0, uses_anonymous_args = 0
 424              		@ link register save eliminated.
 429:Generated_Source\PSoC5/isr_pwm.c ****     *isr_pwm_INTC_CLR_PD = isr_pwm__INTC_MASK;
 425              		.loc 1 429 0
 426 0000 0122     		movs	r2, #1
 427 0002 014B     		ldr	r3, .L43
 428 0004 1A60     		str	r2, [r3]
 429 0006 7047     		bx	lr
 430              	.L44:
 431              		.align	2
 432              	.L43:
 433 0008 80E200E0 		.word	-536812928
 434              		.cfi_endproc
 435              	.LFE76:
 436              		.size	isr_pwm_ClearPending, .-isr_pwm_ClearPending
 437              		.text
 438              	.Letext0:
 439              		.file 2 "c:\\program files (x86)\\cypress\\psoc creator\\4.4\\psoc creator\\import\\gnu\\arm\\5.4.
 440              		.file 3 "c:\\program files (x86)\\cypress\\psoc creator\\4.4\\psoc creator\\import\\gnu\\arm\\5.4.
 441              		.file 4 "Generated_Source\\PSoC5/cytypes.h"
 442              		.file 5 "Generated_Source\\PSoC5/core_cm3.h"
 443              		.file 6 "Generated_Source\\PSoC5\\PWM1.h"